ARM GAS  D:\Temp\ccz2RxWl.s 			page 1


   1              		.cpu cortex-m0
   2              		.arch armv6s-m
   3              		.fpu softvfp
   4              		.eabi_attribute 20, 1
   5              		.eabi_attribute 21, 1
   6              		.eabi_attribute 23, 3
   7              		.eabi_attribute 24, 1
   8              		.eabi_attribute 25, 1
   9              		.eabi_attribute 26, 1
  10              		.eabi_attribute 30, 4
  11              		.eabi_attribute 34, 0
  12              		.eabi_attribute 18, 4
  13              		.file	"main.c"
  14              		.text
  15              	.Ltext0:
  16              		.cfi_sections	.debug_frame
  17              		.file 1 "Src/main.c"
  18              		.section	.text.SystemClock_Config,"ax",%progbits
  19              		.align	1
  20              		.global	SystemClock_Config
  21              		.syntax unified
  22              		.code	16
  23              		.thumb_func
  25              	SystemClock_Config:
  26              	.LFB38:
   1:Src/main.c    **** /* USER CODE BEGIN Header */
   2:Src/main.c    **** /**
   3:Src/main.c    ****  ******************************************************************************
   4:Src/main.c    ****  * @file           : main.c
   5:Src/main.c    ****  * @brief          : Main program body
   6:Src/main.c    ****  ******************************************************************************
   7:Src/main.c    ****  * @attention
   8:Src/main.c    ****  *
   9:Src/main.c    ****  * <h2><center>&copy; Copyright (c) 2019 STMicroelectronics.
  10:Src/main.c    ****  * All rights reserved.</center></h2>
  11:Src/main.c    ****  *
  12:Src/main.c    ****  * This software component is licensed by ST under BSD 3-Clause license,
  13:Src/main.c    ****  * the "License"; You may not use this file except in compliance with the
  14:Src/main.c    ****  * License. You may obtain a copy of the License at:
  15:Src/main.c    ****  *                        opensource.org/licenses/BSD-3-Clause
  16:Src/main.c    ****  *
  17:Src/main.c    ****  ******************************************************************************
  18:Src/main.c    ****  */
  19:Src/main.c    **** /* USER CODE END Header */
  20:Src/main.c    **** 
  21:Src/main.c    **** /* Includes ------------------------------------------------------------------*/
  22:Src/main.c    **** #include "main.h"
  23:Src/main.c    **** #include "adc.h"
  24:Src/main.c    **** #include "dma.h"
  25:Src/main.c    **** #include "gpio.h"
  26:Src/main.c    **** #include "i2c.h"
  27:Src/main.c    **** #include "tim.h"
  28:Src/main.c    **** 
  29:Src/main.c    **** /* Private includes ----------------------------------------------------------*/
  30:Src/main.c    **** /* USER CODE BEGIN Includes */
  31:Src/main.c    **** #include "app.h"
  32:Src/main.c    **** /* USER CODE END Includes */
ARM GAS  D:\Temp\ccz2RxWl.s 			page 2


  33:Src/main.c    **** 
  34:Src/main.c    **** /* Private typedef -----------------------------------------------------------*/
  35:Src/main.c    **** /* USER CODE BEGIN PTD */
  36:Src/main.c    **** /* USER CODE END PTD */
  37:Src/main.c    **** 
  38:Src/main.c    **** /* Private define ------------------------------------------------------------*/
  39:Src/main.c    **** /* USER CODE BEGIN PD */
  40:Src/main.c    **** /* USER CODE END PD */
  41:Src/main.c    **** 
  42:Src/main.c    **** /* Private macro -------------------------------------------------------------*/
  43:Src/main.c    **** /* USER CODE BEGIN PM */
  44:Src/main.c    **** /* USER CODE END PM */
  45:Src/main.c    **** 
  46:Src/main.c    **** /* Private variables ---------------------------------------------------------*/
  47:Src/main.c    **** /* USER CODE BEGIN PV */
  48:Src/main.c    **** /* USER CODE END PV */
  49:Src/main.c    **** 
  50:Src/main.c    **** /* Private function prototypes -----------------------------------------------*/
  51:Src/main.c    **** void SystemClock_Config(void);
  52:Src/main.c    **** /* USER CODE BEGIN PFP */
  53:Src/main.c    **** /* USER CODE END PFP */
  54:Src/main.c    **** 
  55:Src/main.c    **** /* Private user code ---------------------------------------------------------*/
  56:Src/main.c    **** /* USER CODE BEGIN 0 */
  57:Src/main.c    **** /* USER CODE END 0 */
  58:Src/main.c    **** 
  59:Src/main.c    **** /**
  60:Src/main.c    ****  * @brief  The application entry point.
  61:Src/main.c    ****  * @retval int
  62:Src/main.c    ****  */
  63:Src/main.c    **** int main(void) {
  64:Src/main.c    ****   /* USER CODE BEGIN 1 */
  65:Src/main.c    ****   /* USER CODE END 1 */
  66:Src/main.c    **** 
  67:Src/main.c    ****   /* MCU Configuration--------------------------------------------------------*/
  68:Src/main.c    **** 
  69:Src/main.c    ****   /* Reset of all peripherals, Initializes the Flash interface and the Systick.
  70:Src/main.c    ****    */
  71:Src/main.c    ****   HAL_Init();
  72:Src/main.c    **** 
  73:Src/main.c    ****   /* USER CODE BEGIN Init */
  74:Src/main.c    ****   /* USER CODE END Init */
  75:Src/main.c    **** 
  76:Src/main.c    ****   /* Configure the system clock */
  77:Src/main.c    ****   SystemClock_Config();
  78:Src/main.c    **** 
  79:Src/main.c    ****   /* USER CODE BEGIN SysInit */
  80:Src/main.c    ****   /* USER CODE END SysInit */
  81:Src/main.c    **** 
  82:Src/main.c    ****   /* Initialize all configured peripherals */
  83:Src/main.c    ****   MX_GPIO_Init();
  84:Src/main.c    ****   MX_DMA_Init();
  85:Src/main.c    ****   MX_I2C1_Init();
  86:Src/main.c    ****   MX_ADC_Init();
  87:Src/main.c    ****   MX_TIM17_Init();
  88:Src/main.c    ****   MX_TIM3_Init();
  89:Src/main.c    ****   MX_TIM16_Init();
ARM GAS  D:\Temp\ccz2RxWl.s 			page 3


  90:Src/main.c    ****   /* USER CODE BEGIN 2 */
  91:Src/main.c    **** 
  92:Src/main.c    ****   /* 应用初始化 */
  93:Src/main.c    ****   App_Init();
  94:Src/main.c    **** 
  95:Src/main.c    ****   /* USER CODE END 2 */
  96:Src/main.c    **** 
  97:Src/main.c    ****   /* Infinite loop */
  98:Src/main.c    ****   /* USER CODE BEGIN WHILE */
  99:Src/main.c    ****   while (1) {
 100:Src/main.c    ****     /* USER CODE END WHILE */
 101:Src/main.c    **** 
 102:Src/main.c    ****     /* USER CODE BEGIN 3 */
 103:Src/main.c    ****     /* 应用主循环处理 */
 104:Src/main.c    ****     App_MainLoop();
 105:Src/main.c    ****   }
 106:Src/main.c    ****   /* USER CODE END 3 */
 107:Src/main.c    **** }
 108:Src/main.c    **** 
 109:Src/main.c    **** /**
 110:Src/main.c    ****  * @brief System Clock Configuration
 111:Src/main.c    ****  * @retval None
 112:Src/main.c    ****  */
 113:Src/main.c    **** void SystemClock_Config(void) {
  27              		.loc 1 113 31 view -0
  28              		.cfi_startproc
  29              		@ args = 0, pretend = 0, frame = 80
  30              		@ frame_needed = 0, uses_anonymous_args = 0
 114:Src/main.c    ****   RCC_OscInitTypeDef RCC_OscInitStruct = {0};
  31              		.loc 1 114 3 view .LVU1
 113:Src/main.c    ****   RCC_OscInitTypeDef RCC_OscInitStruct = {0};
  32              		.loc 1 113 31 is_stmt 0 view .LVU2
  33 0000 10B5     		push	{r4, lr}
  34              	.LCFI0:
  35              		.cfi_def_cfa_offset 8
  36              		.cfi_offset 4, -8
  37              		.cfi_offset 14, -4
 115:Src/main.c    ****   RCC_ClkInitTypeDef RCC_ClkInitStruct = {0};
  38              		.loc 1 115 22 view .LVU3
  39 0002 1024     		movs	r4, #16
 113:Src/main.c    ****   RCC_OscInitTypeDef RCC_OscInitStruct = {0};
  40              		.loc 1 113 31 view .LVU4
  41 0004 94B0     		sub	sp, sp, #80
  42              	.LCFI1:
  43              		.cfi_def_cfa_offset 88
 114:Src/main.c    ****   RCC_OscInitTypeDef RCC_OscInitStruct = {0};
  44              		.loc 1 114 22 view .LVU5
  45 0006 2C22     		movs	r2, #44
  46 0008 0021     		movs	r1, #0
  47 000a 09A8     		add	r0, sp, #36
  48 000c FFF7FEFF 		bl	memset
  49              	.LVL0:
  50              		.loc 1 115 3 is_stmt 1 view .LVU6
  51              		.loc 1 115 22 is_stmt 0 view .LVU7
  52 0010 2200     		movs	r2, r4
  53 0012 0021     		movs	r1, #0
  54 0014 6846     		mov	r0, sp
ARM GAS  D:\Temp\ccz2RxWl.s 			page 4


  55 0016 FFF7FEFF 		bl	memset
  56              	.LVL1:
 116:Src/main.c    ****   RCC_PeriphCLKInitTypeDef PeriphClkInit = {0};
  57              		.loc 1 116 3 is_stmt 1 view .LVU8
  58              		.loc 1 116 28 is_stmt 0 view .LVU9
  59 001a 2200     		movs	r2, r4
  60 001c 0021     		movs	r1, #0
  61 001e 04A8     		add	r0, sp, #16
  62 0020 FFF7FEFF 		bl	memset
  63              	.LVL2:
 117:Src/main.c    **** 
 118:Src/main.c    ****   /** Initializes the CPU, AHB and APB busses clocks
 119:Src/main.c    ****    */
 120:Src/main.c    ****   RCC_OscInitStruct.OscillatorType =
  64              		.loc 1 120 3 is_stmt 1 view .LVU10
  65              		.loc 1 120 36 is_stmt 0 view .LVU11
  66 0024 1223     		movs	r3, #18
  67 0026 0893     		str	r3, [sp, #32]
 121:Src/main.c    ****       RCC_OSCILLATORTYPE_HSI | RCC_OSCILLATORTYPE_HSI14;
 122:Src/main.c    ****   RCC_OscInitStruct.HSIState = RCC_HSI_ON;
  68              		.loc 1 122 3 is_stmt 1 view .LVU12
  69              		.loc 1 122 30 is_stmt 0 view .LVU13
  70 0028 113B     		subs	r3, r3, #17
  71 002a 0B93     		str	r3, [sp, #44]
 123:Src/main.c    ****   RCC_OscInitStruct.HSI14State = RCC_HSI14_ON;
  72              		.loc 1 123 3 is_stmt 1 view .LVU14
  73              		.loc 1 123 32 is_stmt 0 view .LVU15
  74 002c 0D93     		str	r3, [sp, #52]
 124:Src/main.c    ****   RCC_OscInitStruct.HSICalibrationValue = RCC_HSICALIBRATION_DEFAULT;
  75              		.loc 1 124 3 is_stmt 1 view .LVU16
 125:Src/main.c    ****   RCC_OscInitStruct.HSI14CalibrationValue = 16;
 126:Src/main.c    ****   RCC_OscInitStruct.PLL.PLLState = RCC_PLL_ON;
 127:Src/main.c    ****   RCC_OscInitStruct.PLL.PLLSource = RCC_PLLSOURCE_HSI;
 128:Src/main.c    ****   RCC_OscInitStruct.PLL.PLLMUL = RCC_PLL_MUL4;
  76              		.loc 1 128 32 is_stmt 0 view .LVU17
  77 002e 8023     		movs	r3, #128
 124:Src/main.c    ****   RCC_OscInitStruct.HSICalibrationValue = RCC_HSICALIBRATION_DEFAULT;
  78              		.loc 1 124 41 view .LVU18
  79 0030 0C94     		str	r4, [sp, #48]
 125:Src/main.c    ****   RCC_OscInitStruct.HSI14CalibrationValue = 16;
  80              		.loc 1 125 3 is_stmt 1 view .LVU19
 125:Src/main.c    ****   RCC_OscInitStruct.HSI14CalibrationValue = 16;
  81              		.loc 1 125 43 is_stmt 0 view .LVU20
  82 0032 0E94     		str	r4, [sp, #56]
 126:Src/main.c    ****   RCC_OscInitStruct.PLL.PLLSource = RCC_PLLSOURCE_HSI;
  83              		.loc 1 126 3 is_stmt 1 view .LVU21
  84              		.loc 1 128 32 is_stmt 0 view .LVU22
  85 0034 1B03     		lsls	r3, r3, #12
 126:Src/main.c    ****   RCC_OscInitStruct.PLL.PLLSource = RCC_PLLSOURCE_HSI;
  86              		.loc 1 126 34 view .LVU23
  87 0036 0E3C     		subs	r4, r4, #14
 129:Src/main.c    ****   RCC_OscInitStruct.PLL.PREDIV = RCC_PREDIV_DIV1;
 130:Src/main.c    ****   if (HAL_RCC_OscConfig(&RCC_OscInitStruct) != HAL_OK) {
  88              		.loc 1 130 7 view .LVU24
  89 0038 08A8     		add	r0, sp, #32
 126:Src/main.c    ****   RCC_OscInitStruct.PLL.PLLSource = RCC_PLLSOURCE_HSI;
  90              		.loc 1 126 34 view .LVU25
ARM GAS  D:\Temp\ccz2RxWl.s 			page 5


  91 003a 1094     		str	r4, [sp, #64]
 127:Src/main.c    ****   RCC_OscInitStruct.PLL.PLLMUL = RCC_PLL_MUL4;
  92              		.loc 1 127 3 is_stmt 1 view .LVU26
 128:Src/main.c    ****   RCC_OscInitStruct.PLL.PREDIV = RCC_PREDIV_DIV1;
  93              		.loc 1 128 3 view .LVU27
 128:Src/main.c    ****   RCC_OscInitStruct.PLL.PREDIV = RCC_PREDIV_DIV1;
  94              		.loc 1 128 32 is_stmt 0 view .LVU28
  95 003c 1293     		str	r3, [sp, #72]
 129:Src/main.c    ****   RCC_OscInitStruct.PLL.PREDIV = RCC_PREDIV_DIV1;
  96              		.loc 1 129 3 is_stmt 1 view .LVU29
  97              		.loc 1 130 3 view .LVU30
  98              		.loc 1 130 7 is_stmt 0 view .LVU31
  99 003e FFF7FEFF 		bl	HAL_RCC_OscConfig
 100              	.LVL3:
 131:Src/main.c    ****     Error_Handler();
 101              		.loc 1 131 5 is_stmt 1 view .LVU32
 132:Src/main.c    ****   }
 133:Src/main.c    ****   /** Initializes the CPU, AHB and APB busses clocks
 134:Src/main.c    ****    */
 135:Src/main.c    ****   RCC_ClkInitStruct.ClockType =
 102              		.loc 1 135 3 view .LVU33
 136:Src/main.c    ****       RCC_CLOCKTYPE_HCLK | RCC_CLOCKTYPE_SYSCLK | RCC_CLOCKTYPE_PCLK1;
 137:Src/main.c    ****   RCC_ClkInitStruct.SYSCLKSource = RCC_SYSCLKSOURCE_PLLCLK;
 103              		.loc 1 137 34 is_stmt 0 view .LVU34
 104 0042 0194     		str	r4, [sp, #4]
 138:Src/main.c    ****   RCC_ClkInitStruct.AHBCLKDivider = RCC_SYSCLK_DIV1;
 105              		.loc 1 138 35 view .LVU35
 106 0044 0024     		movs	r4, #0
 135:Src/main.c    ****       RCC_CLOCKTYPE_HCLK | RCC_CLOCKTYPE_SYSCLK | RCC_CLOCKTYPE_PCLK1;
 107              		.loc 1 135 31 view .LVU36
 108 0046 0723     		movs	r3, #7
 139:Src/main.c    ****   RCC_ClkInitStruct.APB1CLKDivider = RCC_HCLK_DIV1;
 140:Src/main.c    **** 
 141:Src/main.c    ****   if (HAL_RCC_ClockConfig(&RCC_ClkInitStruct, FLASH_LATENCY_0) != HAL_OK) {
 109              		.loc 1 141 7 view .LVU37
 110 0048 2100     		movs	r1, r4
 111 004a 6846     		mov	r0, sp
 135:Src/main.c    ****       RCC_CLOCKTYPE_HCLK | RCC_CLOCKTYPE_SYSCLK | RCC_CLOCKTYPE_PCLK1;
 112              		.loc 1 135 31 view .LVU38
 113 004c 0093     		str	r3, [sp]
 137:Src/main.c    ****   RCC_ClkInitStruct.AHBCLKDivider = RCC_SYSCLK_DIV1;
 114              		.loc 1 137 3 is_stmt 1 view .LVU39
 138:Src/main.c    ****   RCC_ClkInitStruct.APB1CLKDivider = RCC_HCLK_DIV1;
 115              		.loc 1 138 3 view .LVU40
 138:Src/main.c    ****   RCC_ClkInitStruct.APB1CLKDivider = RCC_HCLK_DIV1;
 116              		.loc 1 138 35 is_stmt 0 view .LVU41
 117 004e 0294     		str	r4, [sp, #8]
 139:Src/main.c    ****   RCC_ClkInitStruct.APB1CLKDivider = RCC_HCLK_DIV1;
 118              		.loc 1 139 3 is_stmt 1 view .LVU42
 139:Src/main.c    ****   RCC_ClkInitStruct.APB1CLKDivider = RCC_HCLK_DIV1;
 119              		.loc 1 139 36 is_stmt 0 view .LVU43
 120 0050 0394     		str	r4, [sp, #12]
 121              		.loc 1 141 3 is_stmt 1 view .LVU44
 122              		.loc 1 141 7 is_stmt 0 view .LVU45
 123 0052 FFF7FEFF 		bl	HAL_RCC_ClockConfig
 124              	.LVL4:
 142:Src/main.c    ****     Error_Handler();
ARM GAS  D:\Temp\ccz2RxWl.s 			page 6


 125              		.loc 1 142 5 is_stmt 1 view .LVU46
 143:Src/main.c    ****   }
 144:Src/main.c    ****   PeriphClkInit.PeriphClockSelection = RCC_PERIPHCLK_I2C1;
 126              		.loc 1 144 3 view .LVU47
 127              		.loc 1 144 38 is_stmt 0 view .LVU48
 128 0056 2023     		movs	r3, #32
 145:Src/main.c    ****   PeriphClkInit.I2c1ClockSelection = RCC_I2C1CLKSOURCE_HSI;
 146:Src/main.c    ****   if (HAL_RCCEx_PeriphCLKConfig(&PeriphClkInit) != HAL_OK) {
 129              		.loc 1 146 7 view .LVU49
 130 0058 04A8     		add	r0, sp, #16
 144:Src/main.c    ****   PeriphClkInit.I2c1ClockSelection = RCC_I2C1CLKSOURCE_HSI;
 131              		.loc 1 144 38 view .LVU50
 132 005a 0493     		str	r3, [sp, #16]
 145:Src/main.c    ****   PeriphClkInit.I2c1ClockSelection = RCC_I2C1CLKSOURCE_HSI;
 133              		.loc 1 145 3 is_stmt 1 view .LVU51
 145:Src/main.c    ****   PeriphClkInit.I2c1ClockSelection = RCC_I2C1CLKSOURCE_HSI;
 134              		.loc 1 145 36 is_stmt 0 view .LVU52
 135 005c 0794     		str	r4, [sp, #28]
 136              		.loc 1 146 3 is_stmt 1 view .LVU53
 137              		.loc 1 146 7 is_stmt 0 view .LVU54
 138 005e FFF7FEFF 		bl	HAL_RCCEx_PeriphCLKConfig
 139              	.LVL5:
 147:Src/main.c    ****     Error_Handler();
 140              		.loc 1 147 5 is_stmt 1 view .LVU55
 148:Src/main.c    ****   }
 149:Src/main.c    **** }
 141              		.loc 1 149 1 is_stmt 0 view .LVU56
 142 0062 14B0     		add	sp, sp, #80
 143              		@ sp needed
 144 0064 10BD     		pop	{r4, pc}
 145              		.cfi_endproc
 146              	.LFE38:
 148              		.section	.text.startup.main,"ax",%progbits
 149              		.align	1
 150              		.global	main
 151              		.syntax unified
 152              		.code	16
 153              		.thumb_func
 155              	main:
 156              	.LFB37:
  63:Src/main.c    ****   /* USER CODE BEGIN 1 */
 157              		.loc 1 63 16 is_stmt 1 view -0
 158              		.cfi_startproc
 159              		@ Volatile: function does not return.
 160              		@ args = 0, pretend = 0, frame = 0
 161              		@ frame_needed = 0, uses_anonymous_args = 0
  71:Src/main.c    **** 
 162              		.loc 1 71 3 view .LVU58
  63:Src/main.c    ****   /* USER CODE BEGIN 1 */
 163              		.loc 1 63 16 is_stmt 0 view .LVU59
 164 0000 10B5     		push	{r4, lr}
 165              	.LCFI2:
 166              		.cfi_def_cfa_offset 8
 167              		.cfi_offset 4, -8
 168              		.cfi_offset 14, -4
  71:Src/main.c    **** 
 169              		.loc 1 71 3 view .LVU60
ARM GAS  D:\Temp\ccz2RxWl.s 			page 7


 170 0002 FFF7FEFF 		bl	HAL_Init
 171              	.LVL6:
  77:Src/main.c    **** 
 172              		.loc 1 77 3 is_stmt 1 view .LVU61
 173 0006 FFF7FEFF 		bl	SystemClock_Config
 174              	.LVL7:
  83:Src/main.c    ****   MX_DMA_Init();
 175              		.loc 1 83 3 view .LVU62
 176 000a FFF7FEFF 		bl	MX_GPIO_Init
 177              	.LVL8:
  84:Src/main.c    ****   MX_I2C1_Init();
 178              		.loc 1 84 3 view .LVU63
 179 000e FFF7FEFF 		bl	MX_DMA_Init
 180              	.LVL9:
  85:Src/main.c    ****   MX_ADC_Init();
 181              		.loc 1 85 3 view .LVU64
 182 0012 FFF7FEFF 		bl	MX_I2C1_Init
 183              	.LVL10:
  86:Src/main.c    ****   MX_TIM17_Init();
 184              		.loc 1 86 3 view .LVU65
 185 0016 FFF7FEFF 		bl	MX_ADC_Init
 186              	.LVL11:
  87:Src/main.c    ****   MX_TIM3_Init();
 187              		.loc 1 87 3 view .LVU66
 188 001a FFF7FEFF 		bl	MX_TIM17_Init
 189              	.LVL12:
  88:Src/main.c    ****   MX_TIM16_Init();
 190              		.loc 1 88 3 view .LVU67
 191 001e FFF7FEFF 		bl	MX_TIM3_Init
 192              	.LVL13:
  89:Src/main.c    ****   /* USER CODE BEGIN 2 */
 193              		.loc 1 89 3 view .LVU68
 194 0022 FFF7FEFF 		bl	MX_TIM16_Init
 195              	.LVL14:
  93:Src/main.c    **** 
 196              		.loc 1 93 3 view .LVU69
 197 0026 FFF7FEFF 		bl	App_Init
 198              	.LVL15:
 199              	.L3:
  99:Src/main.c    ****     /* USER CODE END WHILE */
 200              		.loc 1 99 3 view .LVU70
 104:Src/main.c    ****   }
 201              		.loc 1 104 5 discriminator 1 view .LVU71
 202 002a FFF7FEFF 		bl	App_MainLoop
 203              	.LVL16:
  99:Src/main.c    ****     /* USER CODE END WHILE */
 204              		.loc 1 99 9 view .LVU72
 205 002e FCE7     		b	.L3
 206              		.cfi_endproc
 207              	.LFE37:
 209              		.section	.text.HAL_GPIO_EXTI_Callback,"ax",%progbits
 210              		.align	1
 211              		.global	HAL_GPIO_EXTI_Callback
 212              		.syntax unified
 213              		.code	16
 214              		.thumb_func
 216              	HAL_GPIO_EXTI_Callback:
ARM GAS  D:\Temp\ccz2RxWl.s 			page 8


 217              	.LVL17:
 218              	.LFB39:
 150:Src/main.c    **** 
 151:Src/main.c    **** /* USER CODE BEGIN 4 */
 152:Src/main.c    **** #include "app.h"
 153:Src/main.c    **** 
 154:Src/main.c    **** /**
 155:Src/main.c    ****  * @brief  GPIO 外部中断回调
 156:Src/main.c    ****  */
 157:Src/main.c    **** void HAL_GPIO_EXTI_Callback(uint16_t GPIO_Pin) {
 219              		.loc 1 157 48 view -0
 220              		.cfi_startproc
 221              		@ args = 0, pretend = 0, frame = 0
 222              		@ frame_needed = 0, uses_anonymous_args = 0
 158:Src/main.c    ****   App_GPIO_EXTI_Callback(GPIO_Pin);
 223              		.loc 1 158 3 view .LVU74
 157:Src/main.c    ****   App_GPIO_EXTI_Callback(GPIO_Pin);
 224              		.loc 1 157 48 is_stmt 0 view .LVU75
 225 0000 10B5     		push	{r4, lr}
 226              	.LCFI3:
 227              		.cfi_def_cfa_offset 8
 228              		.cfi_offset 4, -8
 229              		.cfi_offset 14, -4
 230              		.loc 1 158 3 view .LVU76
 231 0002 FFF7FEFF 		bl	App_GPIO_EXTI_Callback
 232              	.LVL18:
 159:Src/main.c    **** }
 233              		.loc 1 159 1 view .LVU77
 234              		@ sp needed
 235 0006 10BD     		pop	{r4, pc}
 236              		.cfi_endproc
 237              	.LFE39:
 239              		.section	.text.HAL_TIM_PeriodElapsedCallback,"ax",%progbits
 240              		.align	1
 241              		.global	HAL_TIM_PeriodElapsedCallback
 242              		.syntax unified
 243              		.code	16
 244              		.thumb_func
 246              	HAL_TIM_PeriodElapsedCallback:
 247              	.LVL19:
 248              	.LFB40:
 160:Src/main.c    **** 
 161:Src/main.c    **** /**
 162:Src/main.c    ****  * @brief  定时器周期回调
 163:Src/main.c    ****  */
 164:Src/main.c    **** void HAL_TIM_PeriodElapsedCallback(TIM_HandleTypeDef *htim) {
 249              		.loc 1 164 61 is_stmt 1 view -0
 250              		.cfi_startproc
 251              		@ args = 0, pretend = 0, frame = 0
 252              		@ frame_needed = 0, uses_anonymous_args = 0
 165:Src/main.c    ****   App_TIM_PeriodElapsedCallback(htim);
 253              		.loc 1 165 3 view .LVU79
 164:Src/main.c    ****   App_TIM_PeriodElapsedCallback(htim);
 254              		.loc 1 164 61 is_stmt 0 view .LVU80
 255 0000 10B5     		push	{r4, lr}
 256              	.LCFI4:
 257              		.cfi_def_cfa_offset 8
ARM GAS  D:\Temp\ccz2RxWl.s 			page 9


 258              		.cfi_offset 4, -8
 259              		.cfi_offset 14, -4
 260              		.loc 1 165 3 view .LVU81
 261 0002 FFF7FEFF 		bl	App_TIM_PeriodElapsedCallback
 262              	.LVL20:
 166:Src/main.c    **** }
 263              		.loc 1 166 1 view .LVU82
 264              		@ sp needed
 265 0006 10BD     		pop	{r4, pc}
 266              		.cfi_endproc
 267              	.LFE40:
 269              		.section	.text.Error_Handler,"ax",%progbits
 270              		.align	1
 271              		.global	Error_Handler
 272              		.syntax unified
 273              		.code	16
 274              		.thumb_func
 276              	Error_Handler:
 277              	.LFB41:
 167:Src/main.c    **** 
 168:Src/main.c    **** /* USER CODE END 4 */
 169:Src/main.c    **** 
 170:Src/main.c    **** /**
 171:Src/main.c    ****  * @brief  This function is executed in case of error occurrence.
 172:Src/main.c    ****  * @retval None
 173:Src/main.c    ****  */
 174:Src/main.c    **** void Error_Handler(void) {
 278              		.loc 1 174 26 is_stmt 1 view -0
 279              		.cfi_startproc
 280              		@ args = 0, pretend = 0, frame = 0
 281              		@ frame_needed = 0, uses_anonymous_args = 0
 282              		@ link register save eliminated.
 175:Src/main.c    ****   /* USER CODE BEGIN Error_Handler_Debug */
 176:Src/main.c    ****   /* User can add his own implementation to report the HAL error return state */
 177:Src/main.c    **** 
 178:Src/main.c    ****   /* USER CODE END Error_Handler_Debug */
 179:Src/main.c    **** }
 283              		.loc 1 179 1 view .LVU84
 284              		@ sp needed
 285 0000 7047     		bx	lr
 286              		.cfi_endproc
 287              	.LFE41:
 289              		.text
 290              	.Letext0:
 291              		.file 2 "D:\\STM32CubeCLT\\STM32CubeCLT_1.18.0\\GNU-tools-for-STM32\\bin/../lib/gcc/arm-none-eabi/
 292              		.file 3 "D:\\STM32CubeCLT\\STM32CubeCLT_1.18.0\\GNU-tools-for-STM32\\bin/../lib/gcc/arm-none-eabi/
 293              		.file 4 "Drivers/CMSIS/Device/ST/STM32F0xx/Include/stm32f030x6.h"
 294              		.file 5 "Drivers/STM32F0xx_HAL_Driver/Inc/stm32f0xx_hal_def.h"
 295              		.file 6 "Drivers/STM32F0xx_HAL_Driver/Inc/stm32f0xx_hal_rcc.h"
 296              		.file 7 "Drivers/STM32F0xx_HAL_Driver/Inc/stm32f0xx_hal_rcc_ex.h"
 297              		.file 8 "Drivers/STM32F0xx_HAL_Driver/Inc/stm32f0xx_hal_dma.h"
 298              		.file 9 "Drivers/STM32F0xx_HAL_Driver/Inc/stm32f0xx_hal_tim.h"
 299              		.file 10 "Inc/app.h"
 300              		.file 11 "Inc/tim.h"
 301              		.file 12 "Inc/adc.h"
 302              		.file 13 "Inc/i2c.h"
 303              		.file 14 "Inc/dma.h"
ARM GAS  D:\Temp\ccz2RxWl.s 			page 10


 304              		.file 15 "Inc/gpio.h"
 305              		.file 16 "Drivers/STM32F0xx_HAL_Driver/Inc/stm32f0xx_hal.h"
 306              		.file 17 "<built-in>"
ARM GAS  D:\Temp\ccz2RxWl.s 			page 11


DEFINED SYMBOLS
                            *ABS*:00000000 main.c
  D:\Temp\ccz2RxWl.s:19     .text.SystemClock_Config:00000000 $t
  D:\Temp\ccz2RxWl.s:25     .text.SystemClock_Config:00000000 SystemClock_Config
  D:\Temp\ccz2RxWl.s:149    .text.startup.main:00000000 $t
  D:\Temp\ccz2RxWl.s:155    .text.startup.main:00000000 main
  D:\Temp\ccz2RxWl.s:210    .text.HAL_GPIO_EXTI_Callback:00000000 $t
  D:\Temp\ccz2RxWl.s:216    .text.HAL_GPIO_EXTI_Callback:00000000 HAL_GPIO_EXTI_Callback
  D:\Temp\ccz2RxWl.s:240    .text.HAL_TIM_PeriodElapsedCallback:00000000 $t
  D:\Temp\ccz2RxWl.s:246    .text.HAL_TIM_PeriodElapsedCallback:00000000 HAL_TIM_PeriodElapsedCallback
  D:\Temp\ccz2RxWl.s:270    .text.Error_Handler:00000000 $t
  D:\Temp\ccz2RxWl.s:276    .text.Error_Handler:00000000 Error_Handler

UNDEFINED SYMBOLS
memset
HAL_RCC_OscConfig
HAL_RCC_ClockConfig
HAL_RCCEx_PeriphCLKConfig
HAL_Init
MX_GPIO_Init
MX_DMA_Init
MX_I2C1_Init
MX_ADC_Init
MX_TIM17_Init
MX_TIM3_Init
MX_TIM16_Init
App_Init
App_MainLoop
App_GPIO_EXTI_Callback
App_TIM_PeriodElapsedCallback
