ARM GAS  D:\Temp\ccpUgK8Y.s 			page 1


   1              		.cpu cortex-m0
   2              		.arch armv6s-m
   3              		.fpu softvfp
   4              		.eabi_attribute 20, 1
   5              		.eabi_attribute 21, 1
   6              		.eabi_attribute 23, 3
   7              		.eabi_attribute 24, 1
   8              		.eabi_attribute 25, 1
   9              		.eabi_attribute 26, 1
  10              		.eabi_attribute 30, 4
  11              		.eabi_attribute 34, 0
  12              		.eabi_attribute 18, 4
  13              		.file	"main.c"
  14              		.text
  15              	.Ltext0:
  16              		.cfi_sections	.debug_frame
  17              		.file 1 "Src/main.c"
  18              		.section	.text.readBackupSettings,"ax",%progbits
  19              		.align	1
  20              		.global	readBackupSettings
  21              		.syntax unified
  22              		.code	16
  23              		.thumb_func
  25              	readBackupSettings:
  26              	.LFB37:
   1:Src/main.c    **** /* USER CODE BEGIN Header */
   2:Src/main.c    **** /**
   3:Src/main.c    ****   ******************************************************************************
   4:Src/main.c    ****   * @file           : main.c
   5:Src/main.c    ****   * @brief          : Main program body
   6:Src/main.c    ****   ******************************************************************************
   7:Src/main.c    ****   * @attention
   8:Src/main.c    ****   *
   9:Src/main.c    ****   * <h2><center>&copy; Copyright (c) 2019 STMicroelectronics.
  10:Src/main.c    ****   * All rights reserved.</center></h2>
  11:Src/main.c    ****   *
  12:Src/main.c    ****   * This software component is licensed by ST under BSD 3-Clause license,
  13:Src/main.c    ****   * the "License"; You may not use this file except in compliance with the
  14:Src/main.c    ****   * License. You may obtain a copy of the License at:
  15:Src/main.c    ****   *                        opensource.org/licenses/BSD-3-Clause
  16:Src/main.c    ****   *
  17:Src/main.c    ****   ******************************************************************************
  18:Src/main.c    ****   */
  19:Src/main.c    **** /* USER CODE END Header */
  20:Src/main.c    **** 
  21:Src/main.c    **** /* Includes ------------------------------------------------------------------*/
  22:Src/main.c    **** #include "main.h"
  23:Src/main.c    **** #include "adc.h"
  24:Src/main.c    **** #include "dma.h"
  25:Src/main.c    **** #include "i2c.h"
  26:Src/main.c    **** #include "tim.h"
  27:Src/main.c    **** #include "gpio.h"
  28:Src/main.c    **** 
  29:Src/main.c    **** /* Private includes ----------------------------------------------------------*/
  30:Src/main.c    **** /* USER CODE BEGIN Includes */
  31:Src/main.c    **** #include "TM1637.h"
  32:Src/main.c    **** #include "SD3077.h"
ARM GAS  D:\Temp\ccpUgK8Y.s 			page 2


  33:Src/main.c    **** #include "stdbool.h"
  34:Src/main.c    **** /* USER CODE END Includes */
  35:Src/main.c    **** 
  36:Src/main.c    **** /* Private typedef -----------------------------------------------------------*/
  37:Src/main.c    **** /* USER CODE BEGIN PTD */
  38:Src/main.c    **** typedef enum{
  39:Src/main.c    **** 	MODE_SHOW_TIME = 0,
  40:Src/main.c    **** 	MODE_SHOW_SECOND,
  41:Src/main.c    **** 	MODE_SHOW_TEMPERTURE,
  42:Src/main.c    **** 	MODE_SET_HOUR,
  43:Src/main.c    **** 	MODE_SET_MINUTE,
  44:Src/main.c    **** 	MODE_SET_ALARM_ENABLE,
  45:Src/main.c    **** 	MODE_SET_ALARM_HOUR,
  46:Src/main.c    **** 	MODE_SET_ALARM_MINUTE,
  47:Src/main.c    **** 	MODE_SET_TEMP_SHOW,
  48:Src/main.c    **** 	MODE_SET_TEMP_HIDE,
  49:Src/main.c    **** 	MODE_SET_BRIGHTNESS,
  50:Src/main.c    **** 	MODE_SET_BRIGHTNESS_STRONG,
  51:Src/main.c    **** 	MODE_SET_BRIGHTNESS_WEAK,
  52:Src/main.c    **** 	MODE_SET_ROT_ENABLE,
  53:Src/main.c    **** 	MODE_SET_ROT_START,
  54:Src/main.c    **** 	MODE_SET_ROT_STOP,
  55:Src/main.c    **** }DisplayMode;
  56:Src/main.c    **** /* USER CODE END PTD */
  57:Src/main.c    **** 
  58:Src/main.c    **** /* Private define ------------------------------------------------------------*/
  59:Src/main.c    **** /* USER CODE BEGIN PD */
  60:Src/main.c    **** 
  61:Src/main.c    **** /* USER CODE END PD */
  62:Src/main.c    **** 
  63:Src/main.c    **** /* Private macro -------------------------------------------------------------*/
  64:Src/main.c    **** /* USER CODE BEGIN PM */
  65:Src/main.c    **** #define SECOND_INT_PIN               SEC_INT_Pin             // 秒中断管脚编号
  66:Src/main.c    **** #define SECOND_INT_EXTI_IRQN         SEC_INT_EXTI_IRQn       // 秒中断IRQN
  67:Src/main.c    **** #define KEY_EXTI_IRQN                MODE_KEY_EXTI_IRQn      // 按键中断IRQN
  68:Src/main.c    **** 
  69:Src/main.c    **** #define MODE_KEY_GPIO_PORT           MODE_KEY_GPIO_Port      // 模式按钮接口
  70:Src/main.c    **** #define MODE_KEY_PIN                 MODE_KEY_Pin            // 模式按钮接口编号
  71:Src/main.c    **** 
  72:Src/main.c    **** #define SET_KEY_GPIO_PORT            SET_KEY_GPIO_Port       // 设置按钮接口
  73:Src/main.c    **** #define SET_KEY_PIN                  SET_KEY_Pin             // 设置按钮接口编号
  74:Src/main.c    **** 
  75:Src/main.c    **** #define BUZZER_GPIO_PORT             BUZZER_GPIO_Port        // 蜂鸣器接口
  76:Src/main.c    **** #define BUZZER_PIN                   BUZZER_Pin              // 蜂鸣器接口编号
  77:Src/main.c    **** 
  78:Src/main.c    **** #define KEY_LONG_PRESS_EFFECT_TIME   800       // 按钮长按生效时间
  79:Src/main.c    **** #define KEY_REPEAT_TIME_INTERVAL     250       // 按钮长按重复报告间隔
  80:Src/main.c    **** #define KEY_CLICK_EFFECT_TIME        50        // 按钮按下生效时间
  81:Src/main.c    **** #define YEAR_MAX_SET                 38        // 最大可设置的年
  82:Src/main.c    **** #define YEAR_MIN_SET                 15        // 最小可设置的年
  83:Src/main.c    **** #define TEMPERTURE_MAX_SHOW_TIME     15
  84:Src/main.c    **** #define TEMPERTURE_MAX_HIDE_TIME     30
  85:Src/main.c    **** #define RING_ON_TIME_LONG            1000      // 整点报时响铃时长
  86:Src/main.c    **** #define STRONG_BRIGHTNESS_ADC_VALUE  2800      //
  87:Src/main.c    **** #define WEAK_BRIGHTNESS_ADC_VALUE    2300      //
  88:Src/main.c    **** #define STRONG_BRIGHTNESS_VALUE      8         //
  89:Src/main.c    **** #define WEAK_BRIGHTNESS_VALUE        1         //
ARM GAS  D:\Temp\ccpUgK8Y.s 			page 3


  90:Src/main.c    **** 
  91:Src/main.c    **** #define ALARM_CONTROL_TIMER_HANDLE   htim17    // 响铃控制定时器
  92:Src/main.c    **** #define ALARM_CONTROL_TIMER          TIM17     // 响铃控制定时器
  93:Src/main.c    **** #define LIGHT_CONTROL_TIMER_HANDLE   htim16    // 亮度控制定时器
  94:Src/main.c    **** #define LIGHT_CONTROL_TIMER          TIM16     // 亮度控制定时器
  95:Src/main.c    **** #define TEMPERTURE_ADC_HANDLE        hadc      // ADC
  96:Src/main.c    **** 
  97:Src/main.c    **** #define BAK_DATA_SIZE                13
  98:Src/main.c    **** #define BAK_POWER_DOWN_IND_INDEX     0x00
  99:Src/main.c    **** #define BAK_ALARM_ENABLED_INDEX      0x02
 100:Src/main.c    **** #define BAK_ALARM_HOUR_INDEX         0x03
 101:Src/main.c    **** #define BAK_ALARM_MINUTE_INDEX       0x04
 102:Src/main.c    **** #define BAK_TEMP_SHOW_TIME_INDEX     0x05
 103:Src/main.c    **** #define BAK_TEMP_HIDE_TIME_INDEX     0x06
 104:Src/main.c    **** #define BAK_ROT_ENABLED_INDEX        0x07
 105:Src/main.c    **** #define BAK_ROT_START_INDEX          0x08
 106:Src/main.c    **** #define BAK_ROT_STOP_INDEX           0x09
 107:Src/main.c    **** #define BAK_BRIGHTNESS_INDEX         0x0A
 108:Src/main.c    **** #define BAK_BRIGHTNESS_STRONG_INDEX  0x0B
 109:Src/main.c    **** #define BAK_BRIGHTNESS_WEAK_INDEX    0x0C
 110:Src/main.c    **** 
 111:Src/main.c    **** #define POWER_DOWN_IND_DATA          0xFA
 112:Src/main.c    **** 
 113:Src/main.c    **** // NTC温度读取相关
 114:Src/main.c    **** #define TEMP_BUFFER_SIZE   8     // 温度读取缓存长度
 115:Src/main.c    **** #define TEMP_MAP_SIZE      126   // 温度表长度
 116:Src/main.c    **** const uint16_t tempertureMap[] = {1054, 1091, 1128, 1165, 1203, 1242, 1280, 1320, 1359, 1399, 1439,
 117:Src/main.c    **** 
 118:Src/main.c    **** /* USER CODE END PM */
 119:Src/main.c    **** 
 120:Src/main.c    **** /* Private variables ---------------------------------------------------------*/
 121:Src/main.c    **** 
 122:Src/main.c    **** /* USER CODE BEGIN PV */
 123:Src/main.c    **** DisplayMode currentMode = MODE_SHOW_TIME;
 124:Src/main.c    **** bool isInitCompleted = false;
 125:Src/main.c    **** uint32_t lastDisplayChangeTime;
 126:Src/main.c    **** 
 127:Src/main.c    **** // ADC
 128:Src/main.c    **** uint32_t adcValue[2];
 129:Src/main.c    **** 
 130:Src/main.c    **** uint8_t savedBrightness = 0;
 131:Src/main.c    **** bool isWeakBrightness = true;
 132:Src/main.c    **** uint8_t strongBrightness, weakBrightness;
 133:Src/main.c    **** 
 134:Src/main.c    **** DateTime time, lastTime;
 135:Src/main.c    **** uint8_t blinkControl;
 136:Src/main.c    **** 
 137:Src/main.c    **** bool isAlarmEnabled = false;
 138:Src/main.c    **** bool isAlarmed = false, isAlarming = false;
 139:Src/main.c    **** 
 140:Src/main.c    **** uint8_t alarmHour = 0, alarmMin = 0;
 141:Src/main.c    **** 
 142:Src/main.c    **** bool isRingOnTimeEnabled ;
 143:Src/main.c    **** uint8_t ringOnTimeStart, ringOnTimeStop;
 144:Src/main.c    **** uint8_t lastRingOnTimeHour;
 145:Src/main.c    **** uint32_t ringStartTime;
 146:Src/main.c    **** 
ARM GAS  D:\Temp\ccpUgK8Y.s 			page 4


 147:Src/main.c    **** uint32_t lastModeKeyPressTime, lastSetKeyPressTime, lastSetKeyPressReportTime;
 148:Src/main.c    **** uint32_t alarmTimestamp, alarmBeepCount;
 149:Src/main.c    **** bool setKeyRepeatReported = false;
 150:Src/main.c    **** 
 151:Src/main.c    **** // 温度
 152:Src/main.c    **** uint8_t temperture = 25;
 153:Src/main.c    **** uint8_t tempertureShowTime, tempertureHideTime;
 154:Src/main.c    **** uint8_t tempBuffered = 0;
 155:Src/main.c    **** uint16_t tempBuffer[TEMP_BUFFER_SIZE + 1];
 156:Src/main.c    **** /* USER CODE END PV */
 157:Src/main.c    **** 
 158:Src/main.c    **** /* Private function prototypes -----------------------------------------------*/
 159:Src/main.c    **** void SystemClock_Config(void);
 160:Src/main.c    **** /* USER CODE BEGIN PFP */
 161:Src/main.c    **** 
 162:Src/main.c    **** /* USER CODE END PFP */
 163:Src/main.c    **** 
 164:Src/main.c    **** /* Private user code ---------------------------------------------------------*/
 165:Src/main.c    **** /* USER CODE BEGIN 0 */
 166:Src/main.c    **** void readBackupSettings() {
  27              		.loc 1 166 27 view -0
  28              		.cfi_startproc
  29              		@ args = 0, pretend = 0, frame = 8
  30              		@ frame_needed = 0, uses_anonymous_args = 0
 167:Src/main.c    **** 	uint8_t data[3];
  31              		.loc 1 167 2 view .LVU1
 168:Src/main.c    **** 	ReadBackData(0, data, 3);
  32              		.loc 1 168 2 view .LVU2
 166:Src/main.c    **** 	uint8_t data[3];
  33              		.loc 1 166 27 is_stmt 0 view .LVU3
  34 0000 73B5     		push	{r0, r1, r4, r5, r6, lr}
  35              	.LCFI0:
  36              		.cfi_def_cfa_offset 24
  37              		.cfi_offset 0, -24
  38              		.cfi_offset 1, -20
  39              		.cfi_offset 4, -16
  40              		.cfi_offset 5, -12
  41              		.cfi_offset 6, -8
  42              		.cfi_offset 14, -4
  43              		.loc 1 168 2 view .LVU4
  44 0002 01AC     		add	r4, sp, #4
  45 0004 2100     		movs	r1, r4
  46 0006 0322     		movs	r2, #3
  47 0008 0020     		movs	r0, #0
  48 000a FFF7FEFF 		bl	ReadBackData
  49              	.LVL0:
 169:Src/main.c    **** 
 170:Src/main.c    **** 	alarmHour = data[0];
  50              		.loc 1 170 2 is_stmt 1 view .LVU5
  51              		.loc 1 170 18 is_stmt 0 view .LVU6
  52 000e 2678     		ldrb	r6, [r4]
  53              		.loc 1 170 12 view .LVU7
  54 0010 094D     		ldr	r5, .L4
 171:Src/main.c    **** 	alarmMin = data[1];
  55              		.loc 1 171 11 view .LVU8
  56 0012 0A49     		ldr	r1, .L4+4
 170:Src/main.c    **** 	alarmMin = data[1];
ARM GAS  D:\Temp\ccpUgK8Y.s 			page 5


  57              		.loc 1 170 12 view .LVU9
  58 0014 2E70     		strb	r6, [r5]
  59              		.loc 1 171 2 is_stmt 1 view .LVU10
  60              		.loc 1 171 17 is_stmt 0 view .LVU11
  61 0016 6078     		ldrb	r0, [r4, #1]
 172:Src/main.c    **** 	isAlarmEnabled = data[2];
  62              		.loc 1 172 17 view .LVU12
  63 0018 094B     		ldr	r3, .L4+8
 171:Src/main.c    **** 	alarmMin = data[1];
  64              		.loc 1 171 11 view .LVU13
  65 001a 0870     		strb	r0, [r1]
  66              		.loc 1 172 2 is_stmt 1 view .LVU14
  67              		.loc 1 172 23 is_stmt 0 view .LVU15
  68 001c A278     		ldrb	r2, [r4, #2]
  69 001e 541E     		subs	r4, r2, #1
  70 0020 A241     		sbcs	r2, r2, r4
  71 0022 1A70     		strb	r2, [r3]
 173:Src/main.c    **** 
 174:Src/main.c    **** 	// 检查闹铃设置是否合规
 175:Src/main.c    **** 	if(alarmHour > 23) alarmHour = 0;
  72              		.loc 1 175 2 is_stmt 1 view .LVU16
  73              		.loc 1 175 4 is_stmt 0 view .LVU17
  74 0024 172E     		cmp	r6, #23
  75 0026 01D9     		bls	.L2
  76              		.loc 1 175 21 is_stmt 1 discriminator 1 view .LVU18
  77              		.loc 1 175 31 is_stmt 0 discriminator 1 view .LVU19
  78 0028 0023     		movs	r3, #0
  79 002a 2B70     		strb	r3, [r5]
  80              	.L2:
 176:Src/main.c    **** 	if(alarmMin > 59) alarmMin = 0;
  81              		.loc 1 176 2 is_stmt 1 view .LVU20
  82              		.loc 1 176 4 is_stmt 0 view .LVU21
  83 002c 3B28     		cmp	r0, #59
  84 002e 01D9     		bls	.L1
  85              		.loc 1 176 20 is_stmt 1 discriminator 1 view .LVU22
  86              		.loc 1 176 29 is_stmt 0 discriminator 1 view .LVU23
  87 0030 0023     		movs	r3, #0
  88 0032 0B70     		strb	r3, [r1]
  89              	.L1:
 177:Src/main.c    **** }
  90              		.loc 1 177 1 view .LVU24
  91              		@ sp needed
  92 0034 73BD     		pop	{r0, r1, r4, r5, r6, pc}
  93              	.L5:
  94 0036 C046     		.align	2
  95              	.L4:
  96 0038 00000000 		.word	alarmHour
  97 003c 00000000 		.word	alarmMin
  98 0040 00000000 		.word	isAlarmEnabled
  99              		.cfi_endproc
 100              	.LFE37:
 102              		.section	.text.saveSettings,"ax",%progbits
 103              		.align	1
 104              		.global	saveSettings
 105              		.syntax unified
 106              		.code	16
 107              		.thumb_func
ARM GAS  D:\Temp\ccpUgK8Y.s 			page 6


 109              	saveSettings:
 110              	.LFB38:
 178:Src/main.c    **** 
 179:Src/main.c    **** void saveSettings(){
 111              		.loc 1 179 20 is_stmt 1 view -0
 112              		.cfi_startproc
 113              		@ args = 0, pretend = 0, frame = 16
 114              		@ frame_needed = 0, uses_anonymous_args = 0
 180:Src/main.c    **** 	uint8_t data[BAK_DATA_SIZE] = {
 115              		.loc 1 180 2 view .LVU26
 179:Src/main.c    **** 	uint8_t data[BAK_DATA_SIZE] = {
 116              		.loc 1 179 20 is_stmt 0 view .LVU27
 117 0000 1FB5     		push	{r0, r1, r2, r3, r4, lr}
 118              	.LCFI1:
 119              		.cfi_def_cfa_offset 24
 120              		.cfi_offset 0, -24
 121              		.cfi_offset 1, -20
 122              		.cfi_offset 2, -16
 123              		.cfi_offset 3, -12
 124              		.cfi_offset 4, -8
 125              		.cfi_offset 14, -4
 126              		.loc 1 180 10 view .LVU28
 127 0002 6A46     		mov	r2, sp
 128 0004 144B     		ldr	r3, .L7
 181:Src/main.c    **** 			POWER_DOWN_IND_DATA,
 182:Src/main.c    **** 			POWER_DOWN_IND_DATA,
 183:Src/main.c    **** 			isAlarmEnabled,
 184:Src/main.c    **** 			alarmHour,
 185:Src/main.c    **** 			alarmMin,
 186:Src/main.c    **** 			tempertureShowTime,
 187:Src/main.c    **** 			tempertureHideTime,
 188:Src/main.c    **** 			isRingOnTimeEnabled,
 189:Src/main.c    **** 			ringOnTimeStart,
 190:Src/main.c    **** 			ringOnTimeStop,
 191:Src/main.c    **** 			savedBrightness,
 192:Src/main.c    **** 			strongBrightness,
 193:Src/main.c    **** 			weakBrightness,
 194:Src/main.c    **** 	};
 195:Src/main.c    **** 	WriteBackData(0, data, BAK_DATA_SIZE);
 129              		.loc 1 195 2 view .LVU29
 130 0006 6946     		mov	r1, sp
 180:Src/main.c    **** 			POWER_DOWN_IND_DATA,
 131              		.loc 1 180 10 view .LVU30
 132 0008 1380     		strh	r3, [r2]
 133 000a 144B     		ldr	r3, .L7+4
 134              		.loc 1 195 2 view .LVU31
 135 000c 0020     		movs	r0, #0
 180:Src/main.c    **** 			POWER_DOWN_IND_DATA,
 136              		.loc 1 180 10 view .LVU32
 137 000e 1B78     		ldrb	r3, [r3]
 138 0010 9370     		strb	r3, [r2, #2]
 139 0012 134B     		ldr	r3, .L7+8
 140 0014 1B78     		ldrb	r3, [r3]
 141 0016 D370     		strb	r3, [r2, #3]
 142 0018 124B     		ldr	r3, .L7+12
 143 001a 1B78     		ldrb	r3, [r3]
 144 001c 1371     		strb	r3, [r2, #4]
ARM GAS  D:\Temp\ccpUgK8Y.s 			page 7


 145 001e 124B     		ldr	r3, .L7+16
 146 0020 1B78     		ldrb	r3, [r3]
 147 0022 5371     		strb	r3, [r2, #5]
 148 0024 114B     		ldr	r3, .L7+20
 149 0026 1B78     		ldrb	r3, [r3]
 150 0028 9371     		strb	r3, [r2, #6]
 151 002a 114B     		ldr	r3, .L7+24
 152 002c 1B78     		ldrb	r3, [r3]
 153 002e D371     		strb	r3, [r2, #7]
 154 0030 104B     		ldr	r3, .L7+28
 155 0032 1B78     		ldrb	r3, [r3]
 156 0034 1372     		strb	r3, [r2, #8]
 157 0036 104B     		ldr	r3, .L7+32
 158 0038 1B78     		ldrb	r3, [r3]
 159 003a 5372     		strb	r3, [r2, #9]
 160 003c 0F4B     		ldr	r3, .L7+36
 161 003e 1B78     		ldrb	r3, [r3]
 162 0040 9372     		strb	r3, [r2, #10]
 163 0042 0F4B     		ldr	r3, .L7+40
 164 0044 1B78     		ldrb	r3, [r3]
 165 0046 D372     		strb	r3, [r2, #11]
 166 0048 0E4B     		ldr	r3, .L7+44
 167 004a 1B78     		ldrb	r3, [r3]
 168 004c 1373     		strb	r3, [r2, #12]
 169              		.loc 1 195 2 is_stmt 1 view .LVU33
 170 004e 0D22     		movs	r2, #13
 171 0050 FFF7FEFF 		bl	WriteBackData
 172              	.LVL1:
 196:Src/main.c    **** }
 173              		.loc 1 196 1 is_stmt 0 view .LVU34
 174 0054 05B0     		add	sp, sp, #20
 175              		@ sp needed
 176 0056 00BD     		pop	{pc}
 177              	.L8:
 178              		.align	2
 179              	.L7:
 180 0058 FAFAFFFF 		.word	-1286
 181 005c 00000000 		.word	isAlarmEnabled
 182 0060 00000000 		.word	alarmHour
 183 0064 00000000 		.word	alarmMin
 184 0068 00000000 		.word	tempertureShowTime
 185 006c 00000000 		.word	tempertureHideTime
 186 0070 00000000 		.word	isRingOnTimeEnabled
 187 0074 00000000 		.word	ringOnTimeStart
 188 0078 00000000 		.word	ringOnTimeStop
 189 007c 00000000 		.word	savedBrightness
 190 0080 00000000 		.word	strongBrightness
 191 0084 00000000 		.word	weakBrightness
 192              		.cfi_endproc
 193              	.LFE38:
 195              		.section	.text.resetSettings,"ax",%progbits
 196              		.align	1
 197              		.global	resetSettings
 198              		.syntax unified
 199              		.code	16
 200              		.thumb_func
 202              	resetSettings:
ARM GAS  D:\Temp\ccpUgK8Y.s 			page 8


 203              	.LFB39:
 197:Src/main.c    **** 
 198:Src/main.c    **** void resetSettings(){
 204              		.loc 1 198 21 is_stmt 1 view -0
 205              		.cfi_startproc
 206              		@ args = 0, pretend = 0, frame = 0
 207              		@ frame_needed = 0, uses_anonymous_args = 0
 208              		@ link register save eliminated.
 199:Src/main.c    **** 	  isAlarmEnabled = false;
 209              		.loc 1 199 4 view .LVU36
 210              		.loc 1 199 19 is_stmt 0 view .LVU37
 211 0000 0023     		movs	r3, #0
 200:Src/main.c    **** 	  alarmHour = 0;
 201:Src/main.c    **** 	  alarmMin = 0;
 202:Src/main.c    **** 	  tempertureShowTime = 2;
 203:Src/main.c    **** 	  tempertureHideTime = 10;
 204:Src/main.c    **** 	  isRingOnTimeEnabled = false;
 205:Src/main.c    **** 	  ringOnTimeStart = 8;
 206:Src/main.c    **** 	  ringOnTimeStop = 20;
 207:Src/main.c    **** 	  savedBrightness = 8;
 208:Src/main.c    **** 	  strongBrightness = 8;
 209:Src/main.c    **** 	  weakBrightness = 1;
 210:Src/main.c    **** }
 212              		.loc 1 210 1 view .LVU38
 213              		@ sp needed
 202:Src/main.c    **** 	  tempertureHideTime = 10;
 214              		.loc 1 202 23 view .LVU39
 215 0002 0221     		movs	r1, #2
 199:Src/main.c    **** 	  isAlarmEnabled = false;
 216              		.loc 1 199 19 view .LVU40
 217 0004 0D4A     		ldr	r2, .L10
 218 0006 1370     		strb	r3, [r2]
 200:Src/main.c    **** 	  alarmHour = 0;
 219              		.loc 1 200 4 is_stmt 1 view .LVU41
 200:Src/main.c    **** 	  alarmHour = 0;
 220              		.loc 1 200 14 is_stmt 0 view .LVU42
 221 0008 0D4A     		ldr	r2, .L10+4
 222 000a 1370     		strb	r3, [r2]
 201:Src/main.c    **** 	  tempertureShowTime = 2;
 223              		.loc 1 201 4 is_stmt 1 view .LVU43
 201:Src/main.c    **** 	  tempertureShowTime = 2;
 224              		.loc 1 201 13 is_stmt 0 view .LVU44
 225 000c 0D4A     		ldr	r2, .L10+8
 226 000e 1370     		strb	r3, [r2]
 202:Src/main.c    **** 	  tempertureHideTime = 10;
 227              		.loc 1 202 4 is_stmt 1 view .LVU45
 202:Src/main.c    **** 	  tempertureHideTime = 10;
 228              		.loc 1 202 23 is_stmt 0 view .LVU46
 229 0010 0D4A     		ldr	r2, .L10+12
 230 0012 1170     		strb	r1, [r2]
 203:Src/main.c    **** 	  isRingOnTimeEnabled = false;
 231              		.loc 1 203 4 is_stmt 1 view .LVU47
 203:Src/main.c    **** 	  isRingOnTimeEnabled = false;
 232              		.loc 1 203 23 is_stmt 0 view .LVU48
 233 0014 0D4A     		ldr	r2, .L10+16
 234 0016 0831     		adds	r1, r1, #8
 235 0018 1170     		strb	r1, [r2]
ARM GAS  D:\Temp\ccpUgK8Y.s 			page 9


 204:Src/main.c    **** 	  ringOnTimeStart = 8;
 236              		.loc 1 204 4 is_stmt 1 view .LVU49
 204:Src/main.c    **** 	  ringOnTimeStart = 8;
 237              		.loc 1 204 24 is_stmt 0 view .LVU50
 238 001a 0D4A     		ldr	r2, .L10+20
 206:Src/main.c    **** 	  savedBrightness = 8;
 239              		.loc 1 206 19 view .LVU51
 240 001c 0A31     		adds	r1, r1, #10
 204:Src/main.c    **** 	  ringOnTimeStart = 8;
 241              		.loc 1 204 24 view .LVU52
 242 001e 1370     		strb	r3, [r2]
 205:Src/main.c    **** 	  ringOnTimeStop = 20;
 243              		.loc 1 205 4 is_stmt 1 view .LVU53
 205:Src/main.c    **** 	  ringOnTimeStop = 20;
 244              		.loc 1 205 20 is_stmt 0 view .LVU54
 245 0020 0C4A     		ldr	r2, .L10+24
 246 0022 0833     		adds	r3, r3, #8
 247 0024 1370     		strb	r3, [r2]
 206:Src/main.c    **** 	  savedBrightness = 8;
 248              		.loc 1 206 4 is_stmt 1 view .LVU55
 206:Src/main.c    **** 	  savedBrightness = 8;
 249              		.loc 1 206 19 is_stmt 0 view .LVU56
 250 0026 0C4A     		ldr	r2, .L10+28
 251 0028 1170     		strb	r1, [r2]
 207:Src/main.c    **** 	  strongBrightness = 8;
 252              		.loc 1 207 4 is_stmt 1 view .LVU57
 207:Src/main.c    **** 	  strongBrightness = 8;
 253              		.loc 1 207 20 is_stmt 0 view .LVU58
 254 002a 0C4A     		ldr	r2, .L10+32
 255 002c 1370     		strb	r3, [r2]
 208:Src/main.c    **** 	  weakBrightness = 1;
 256              		.loc 1 208 4 is_stmt 1 view .LVU59
 208:Src/main.c    **** 	  weakBrightness = 1;
 257              		.loc 1 208 21 is_stmt 0 view .LVU60
 258 002e 0C4A     		ldr	r2, .L10+36
 259 0030 1370     		strb	r3, [r2]
 209:Src/main.c    **** }
 260              		.loc 1 209 4 is_stmt 1 view .LVU61
 209:Src/main.c    **** }
 261              		.loc 1 209 19 is_stmt 0 view .LVU62
 262 0032 0122     		movs	r2, #1
 263 0034 0B4B     		ldr	r3, .L10+40
 264 0036 1A70     		strb	r2, [r3]
 265              		.loc 1 210 1 view .LVU63
 266 0038 7047     		bx	lr
 267              	.L11:
 268 003a C046     		.align	2
 269              	.L10:
 270 003c 00000000 		.word	isAlarmEnabled
 271 0040 00000000 		.word	alarmHour
 272 0044 00000000 		.word	alarmMin
 273 0048 00000000 		.word	tempertureShowTime
 274 004c 00000000 		.word	tempertureHideTime
 275 0050 00000000 		.word	isRingOnTimeEnabled
 276 0054 00000000 		.word	ringOnTimeStart
 277 0058 00000000 		.word	ringOnTimeStop
 278 005c 00000000 		.word	savedBrightness
ARM GAS  D:\Temp\ccpUgK8Y.s 			page 10


 279 0060 00000000 		.word	strongBrightness
 280 0064 00000000 		.word	weakBrightness
 281              		.cfi_endproc
 282              	.LFE39:
 284              		.section	.text.checkRingOnTime,"ax",%progbits
 285              		.align	1
 286              		.global	checkRingOnTime
 287              		.syntax unified
 288              		.code	16
 289              		.thumb_func
 291              	checkRingOnTime:
 292              	.LFB40:
 211:Src/main.c    **** 
 212:Src/main.c    **** void checkRingOnTime(){
 293              		.loc 1 212 23 is_stmt 1 view -0
 294              		.cfi_startproc
 295              		@ args = 0, pretend = 0, frame = 0
 296              		@ frame_needed = 0, uses_anonymous_args = 0
 213:Src/main.c    **** 	// 启用整点报时
 214:Src/main.c    **** 	if(isRingOnTimeEnabled
 297              		.loc 1 214 2 view .LVU65
 298              		.loc 1 214 5 is_stmt 0 view .LVU66
 299 0000 194B     		ldr	r3, .L25
 212:Src/main.c    **** 	// 启用整点报时
 300              		.loc 1 212 23 view .LVU67
 301 0002 70B5     		push	{r4, r5, r6, lr}
 302              	.LCFI2:
 303              		.cfi_def_cfa_offset 16
 304              		.cfi_offset 4, -16
 305              		.cfi_offset 5, -12
 306              		.cfi_offset 6, -8
 307              		.cfi_offset 14, -4
 308              		.loc 1 214 4 view .LVU68
 309 0004 1B78     		ldrb	r3, [r3]
 310 0006 002B     		cmp	r3, #0
 311 0008 2AD0     		beq	.L12
 215:Src/main.c    **** 			// 当前是整点
 216:Src/main.c    **** 			&& time.minutes == 0
 312              		.loc 1 216 11 view .LVU69
 313 000a 184C     		ldr	r4, .L25+4
 314              		.loc 1 216 4 view .LVU70
 315 000c 6378     		ldrb	r3, [r4, #1]
 316 000e 002B     		cmp	r3, #0
 317 0010 26D1     		bne	.L12
 318              	.LBB10:
 319              	.LBI10:
 212:Src/main.c    **** 	// 启用整点报时
 320              		.loc 1 212 6 is_stmt 1 view .LVU71
 321              	.LBB11:
 217:Src/main.c    **** 			// 当前整点尚未报时
 218:Src/main.c    **** 			&& time.hours != lastRingOnTimeHour
 322              		.loc 1 218 18 is_stmt 0 view .LVU72
 323 0012 174D     		ldr	r5, .L25+8
 324              		.loc 1 218 11 view .LVU73
 325 0014 E378     		ldrb	r3, [r4, #3]
 326              		.loc 1 218 4 view .LVU74
 327 0016 2A78     		ldrb	r2, [r5]
ARM GAS  D:\Temp\ccpUgK8Y.s 			page 11


 328 0018 9A42     		cmp	r2, r3
 329 001a 21D0     		beq	.L12
 219:Src/main.c    **** 			// 闹铃未开启或闹铃设置的时间不是整点或不是当前整点
 220:Src/main.c    **** 			&& (!isAlarmEnabled || alarmMin != 0 || alarmHour != time.hours)){
 330              		.loc 1 220 8 view .LVU75
 331 001c 154A     		ldr	r2, .L25+12
 332              		.loc 1 220 4 view .LVU76
 333 001e 1278     		ldrb	r2, [r2]
 334 0020 002A     		cmp	r2, #0
 335 0022 07D0     		beq	.L14
 336              		.loc 1 220 36 discriminator 1 view .LVU77
 337 0024 144A     		ldr	r2, .L25+16
 338              		.loc 1 220 24 discriminator 1 view .LVU78
 339 0026 1278     		ldrb	r2, [r2]
 340 0028 002A     		cmp	r2, #0
 341 002a 03D1     		bne	.L14
 342              		.loc 1 220 54 discriminator 2 view .LVU79
 343 002c 134A     		ldr	r2, .L25+20
 344              		.loc 1 220 41 discriminator 2 view .LVU80
 345 002e 1278     		ldrb	r2, [r2]
 346 0030 9A42     		cmp	r2, r3
 347 0032 15D0     		beq	.L12
 348              	.L14:
 221:Src/main.c    **** 
 222:Src/main.c    **** 		if(ringOnTimeStart <= ringOnTimeStop){
 349              		.loc 1 222 3 is_stmt 1 view .LVU81
 350              		.loc 1 222 22 is_stmt 0 view .LVU82
 351 0034 124A     		ldr	r2, .L25+24
 352 0036 1178     		ldrb	r1, [r2]
 353 0038 124A     		ldr	r2, .L25+28
 354 003a 1278     		ldrb	r2, [r2]
 355              		.loc 1 222 5 view .LVU83
 356 003c 9142     		cmp	r1, r2
 357 003e 10D8     		bhi	.L15
 223:Src/main.c    **** 			if(time.hours >= ringOnTimeStart && time.hours <= ringOnTimeStop){
 358              		.loc 1 223 4 is_stmt 1 view .LVU84
 359              		.loc 1 223 6 is_stmt 0 view .LVU85
 360 0040 8B42     		cmp	r3, r1
 361 0042 0BD3     		bcc	.L16
 362              	.L24:
 363              		.loc 1 223 37 discriminator 1 view .LVU86
 364 0044 9342     		cmp	r3, r2
 365 0046 09D8     		bhi	.L16
 366              	.L17:
 224:Src/main.c    **** 				ringStartTime = HAL_GetTick();
 367              		.loc 1 224 5 is_stmt 1 view .LVU87
 368              		.loc 1 224 21 is_stmt 0 view .LVU88
 369 0048 FFF7FEFF 		bl	HAL_GetTick
 370              	.LVL2:
 371              		.loc 1 224 19 discriminator 1 view .LVU89
 372 004c 0E4B     		ldr	r3, .L25+32
 225:Src/main.c    **** 				HAL_GPIO_WritePin(BUZZER_GPIO_PORT, BUZZER_PIN, GPIO_PIN_RESET);
 373              		.loc 1 225 5 view .LVU90
 374 004e 0022     		movs	r2, #0
 224:Src/main.c    **** 				ringStartTime = HAL_GetTick();
 375              		.loc 1 224 19 discriminator 1 view .LVU91
 376 0050 1860     		str	r0, [r3]
ARM GAS  D:\Temp\ccpUgK8Y.s 			page 12


 377              		.loc 1 225 5 is_stmt 1 view .LVU92
 378 0052 9020     		movs	r0, #144
 379 0054 4021     		movs	r1, #64
 380 0056 C005     		lsls	r0, r0, #23
 381 0058 FFF7FEFF 		bl	HAL_GPIO_WritePin
 382              	.LVL3:
 383              	.L16:
 226:Src/main.c    **** 			}
 227:Src/main.c    **** 		}
 228:Src/main.c    **** 		else{
 229:Src/main.c    **** 			if(time.hours >= ringOnTimeStart || time.hours <= ringOnTimeStop){
 230:Src/main.c    **** 				ringStartTime = HAL_GetTick();
 231:Src/main.c    **** 				HAL_GPIO_WritePin(BUZZER_GPIO_PORT, BUZZER_PIN, GPIO_PIN_RESET);
 232:Src/main.c    **** 			}
 233:Src/main.c    **** 		}
 234:Src/main.c    **** 
 235:Src/main.c    **** 		lastRingOnTimeHour = time.hours;
 384              		.loc 1 235 3 view .LVU93
 385              		.loc 1 235 22 is_stmt 0 view .LVU94
 386 005c E378     		ldrb	r3, [r4, #3]
 387 005e 2B70     		strb	r3, [r5]
 388              	.L12:
 389              	.LBE11:
 390              	.LBE10:
 236:Src/main.c    **** 	}
 237:Src/main.c    **** }
 391              		.loc 1 237 1 view .LVU95
 392              		@ sp needed
 393 0060 70BD     		pop	{r4, r5, r6, pc}
 394              	.L15:
 395              	.LBB13:
 396              	.LBB12:
 229:Src/main.c    **** 				ringStartTime = HAL_GetTick();
 397              		.loc 1 229 4 is_stmt 1 view .LVU96
 229:Src/main.c    **** 				ringStartTime = HAL_GetTick();
 398              		.loc 1 229 6 is_stmt 0 view .LVU97
 399 0062 8B42     		cmp	r3, r1
 400 0064 EED3     		bcc	.L24
 401 0066 EFE7     		b	.L17
 402              	.L26:
 403              		.align	2
 404              	.L25:
 405 0068 00000000 		.word	isRingOnTimeEnabled
 406 006c 00000000 		.word	time
 407 0070 00000000 		.word	lastRingOnTimeHour
 408 0074 00000000 		.word	isAlarmEnabled
 409 0078 00000000 		.word	alarmMin
 410 007c 00000000 		.word	alarmHour
 411 0080 00000000 		.word	ringOnTimeStart
 412 0084 00000000 		.word	ringOnTimeStop
 413 0088 00000000 		.word	ringStartTime
 414              	.LBE12:
 415              	.LBE13:
 416              		.cfi_endproc
 417              	.LFE40:
 419              		.section	.text.alarmStart,"ax",%progbits
 420              		.align	1
ARM GAS  D:\Temp\ccpUgK8Y.s 			page 13


 421              		.global	alarmStart
 422              		.syntax unified
 423              		.code	16
 424              		.thumb_func
 426              	alarmStart:
 427              	.LFB41:
 238:Src/main.c    **** 
 239:Src/main.c    **** void alarmStart(){
 428              		.loc 1 239 18 is_stmt 1 view -0
 429              		.cfi_startproc
 430              		@ args = 0, pretend = 0, frame = 0
 431              		@ frame_needed = 0, uses_anonymous_args = 0
 240:Src/main.c    **** 	isAlarming = true;
 432              		.loc 1 240 2 view .LVU99
 433              		.loc 1 240 13 is_stmt 0 view .LVU100
 434 0000 0122     		movs	r2, #1
 239:Src/main.c    **** 	isAlarming = true;
 435              		.loc 1 239 18 view .LVU101
 436 0002 10B5     		push	{r4, lr}
 437              	.LCFI3:
 438              		.cfi_def_cfa_offset 8
 439              		.cfi_offset 4, -8
 440              		.cfi_offset 14, -4
 441              		.loc 1 240 13 view .LVU102
 442 0004 034B     		ldr	r3, .L28
 241:Src/main.c    **** 	isAlarmed = true;
 242:Src/main.c    **** 	HAL_TIM_Base_Start_IT(&ALARM_CONTROL_TIMER_HANDLE);
 443              		.loc 1 242 2 view .LVU103
 444 0006 0448     		ldr	r0, .L28+4
 240:Src/main.c    **** 	isAlarmed = true;
 445              		.loc 1 240 13 view .LVU104
 446 0008 1A70     		strb	r2, [r3]
 241:Src/main.c    **** 	isAlarmed = true;
 447              		.loc 1 241 2 is_stmt 1 view .LVU105
 241:Src/main.c    **** 	isAlarmed = true;
 448              		.loc 1 241 12 is_stmt 0 view .LVU106
 449 000a 044B     		ldr	r3, .L28+8
 243:Src/main.c    **** }
 450              		.loc 1 243 1 view .LVU107
 451              		@ sp needed
 241:Src/main.c    **** 	isAlarmed = true;
 452              		.loc 1 241 12 view .LVU108
 453 000c 1A70     		strb	r2, [r3]
 242:Src/main.c    **** }
 454              		.loc 1 242 2 is_stmt 1 view .LVU109
 455 000e FFF7FEFF 		bl	HAL_TIM_Base_Start_IT
 456              	.LVL4:
 457              		.loc 1 243 1 is_stmt 0 view .LVU110
 458 0012 10BD     		pop	{r4, pc}
 459              	.L29:
 460              		.align	2
 461              	.L28:
 462 0014 00000000 		.word	isAlarming
 463 0018 00000000 		.word	htim17
 464 001c 00000000 		.word	isAlarmed
 465              		.cfi_endproc
 466              	.LFE41:
ARM GAS  D:\Temp\ccpUgK8Y.s 			page 14


 468              		.section	.text.alarmTimerTick,"ax",%progbits
 469              		.align	1
 470              		.global	alarmTimerTick
 471              		.syntax unified
 472              		.code	16
 473              		.thumb_func
 475              	alarmTimerTick:
 476              	.LFB42:
 244:Src/main.c    **** 
 245:Src/main.c    **** void alarmTimerTick()
 246:Src/main.c    **** {
 477              		.loc 1 246 1 is_stmt 1 view -0
 478              		.cfi_startproc
 479              		@ args = 0, pretend = 0, frame = 0
 480              		@ frame_needed = 0, uses_anonymous_args = 0
 247:Src/main.c    ****     uint16_t onTime = 50, offTime = 50, restTime = 500;
 481              		.loc 1 247 5 view .LVU112
 482              	.LVL5:
 248:Src/main.c    ****     uint8_t ringCounts = 4;
 483              		.loc 1 248 5 view .LVU113
 249:Src/main.c    **** 	alarmTimestamp ++;
 484              		.loc 1 249 2 view .LVU114
 250:Src/main.c    **** 	if(HAL_GPIO_ReadPin(BUZZER_GPIO_PORT, BUZZER_PIN) == GPIO_PIN_RESET)
 485              		.loc 1 250 5 is_stmt 0 view .LVU115
 486 0000 9020     		movs	r0, #144
 246:Src/main.c    ****     uint16_t onTime = 50, offTime = 50, restTime = 500;
 487              		.loc 1 246 1 view .LVU116
 488 0002 70B5     		push	{r4, r5, r6, lr}
 489              	.LCFI4:
 490              		.cfi_def_cfa_offset 16
 491              		.cfi_offset 4, -16
 492              		.cfi_offset 5, -12
 493              		.cfi_offset 6, -8
 494              		.cfi_offset 14, -4
 249:Src/main.c    **** 	alarmTimestamp ++;
 495              		.loc 1 249 17 view .LVU117
 496 0004 1A4C     		ldr	r4, .L34
 497              		.loc 1 250 5 view .LVU118
 498 0006 4021     		movs	r1, #64
 249:Src/main.c    **** 	alarmTimestamp ++;
 499              		.loc 1 249 17 view .LVU119
 500 0008 2368     		ldr	r3, [r4]
 501              		.loc 1 250 5 view .LVU120
 502 000a C005     		lsls	r0, r0, #23
 249:Src/main.c    **** 	alarmTimestamp ++;
 503              		.loc 1 249 17 view .LVU121
 504 000c 0133     		adds	r3, r3, #1
 505 000e 2360     		str	r3, [r4]
 506              		.loc 1 250 2 is_stmt 1 view .LVU122
 507              		.loc 1 250 5 is_stmt 0 view .LVU123
 508 0010 FFF7FEFF 		bl	HAL_GPIO_ReadPin
 509              	.LVL6:
 251:Src/main.c    **** 	{
 252:Src/main.c    **** 		// 短鸣XX毫秒
 253:Src/main.c    **** 		if(alarmTimestamp > onTime){
 510              		.loc 1 253 5 view .LVU124
 511 0014 2368     		ldr	r3, [r4]
ARM GAS  D:\Temp\ccpUgK8Y.s 			page 15


 250:Src/main.c    **** 	{
 512              		.loc 1 250 5 view .LVU125
 513 0016 051E     		subs	r5, r0, #0
 250:Src/main.c    **** 	{
 514              		.loc 1 250 4 discriminator 1 view .LVU126
 515 0018 0DD1     		bne	.L31
 516              		.loc 1 253 3 is_stmt 1 view .LVU127
 517              		.loc 1 253 5 is_stmt 0 view .LVU128
 518 001a 322B     		cmp	r3, #50
 519 001c 0AD9     		bls	.L30
 254:Src/main.c    **** 			HAL_GPIO_WritePin(BUZZER_GPIO_PORT, BUZZER_PIN, SET);
 520              		.loc 1 254 4 is_stmt 1 view .LVU129
 521 001e 9020     		movs	r0, #144
 522 0020 0122     		movs	r2, #1
 523 0022 4021     		movs	r1, #64
 524 0024 C005     		lsls	r0, r0, #23
 525 0026 FFF7FEFF 		bl	HAL_GPIO_WritePin
 526              	.LVL7:
 255:Src/main.c    **** 			alarmBeepCount ++;
 527              		.loc 1 255 4 view .LVU130
 528              		.loc 1 255 19 is_stmt 0 view .LVU131
 529 002a 124A     		ldr	r2, .L34+4
 256:Src/main.c    **** 			alarmTimestamp = 0;
 530              		.loc 1 256 19 view .LVU132
 531 002c 2560     		str	r5, [r4]
 255:Src/main.c    **** 			alarmBeepCount ++;
 532              		.loc 1 255 19 view .LVU133
 533 002e 1368     		ldr	r3, [r2]
 534 0030 0133     		adds	r3, r3, #1
 535 0032 1360     		str	r3, [r2]
 536              		.loc 1 256 4 is_stmt 1 view .LVU134
 537              	.L30:
 257:Src/main.c    **** 		}
 258:Src/main.c    **** 	}
 259:Src/main.c    **** 	else
 260:Src/main.c    **** 	{
 261:Src/main.c    **** 		// 鸣X+1次
 262:Src/main.c    **** 		if(alarmBeepCount < ringCounts)
 263:Src/main.c    **** 		{
 264:Src/main.c    **** 			// 两次短鸣时间间隔
 265:Src/main.c    **** 			if(alarmTimestamp > offTime)
 266:Src/main.c    **** 			{
 267:Src/main.c    **** 				HAL_GPIO_WritePin(BUZZER_GPIO_PORT, BUZZER_PIN, RESET);
 268:Src/main.c    **** 				alarmTimestamp = 0;
 269:Src/main.c    **** 			}
 270:Src/main.c    **** 
 271:Src/main.c    **** 		}
 272:Src/main.c    **** 		// 鸣X+1次后停止响铃一段时间
 273:Src/main.c    **** 		else if(alarmTimestamp > restTime)
 274:Src/main.c    **** 		{
 275:Src/main.c    **** 			HAL_GPIO_WritePin(BUZZER_GPIO_PORT, BUZZER_PIN, RESET);
 276:Src/main.c    **** 			alarmTimestamp = 0;
 277:Src/main.c    **** 			alarmBeepCount = 0;
 278:Src/main.c    **** 		}
 279:Src/main.c    **** 	}
 280:Src/main.c    **** }
 538              		.loc 1 280 1 is_stmt 0 view .LVU135
ARM GAS  D:\Temp\ccpUgK8Y.s 			page 16


 539              		@ sp needed
 540 0034 70BD     		pop	{r4, r5, r6, pc}
 541              	.L31:
 542              	.LBB16:
 543              	.LBI16:
 245:Src/main.c    **** {
 544              		.loc 1 245 6 is_stmt 1 view .LVU136
 545              	.LBB17:
 262:Src/main.c    **** 		{
 546              		.loc 1 262 3 view .LVU137
 262:Src/main.c    **** 		{
 547              		.loc 1 262 21 is_stmt 0 view .LVU138
 548 0036 0F4D     		ldr	r5, .L34+4
 262:Src/main.c    **** 		{
 549              		.loc 1 262 5 view .LVU139
 550 0038 2A68     		ldr	r2, [r5]
 551 003a 032A     		cmp	r2, #3
 552 003c 0AD8     		bhi	.L33
 265:Src/main.c    **** 			{
 553              		.loc 1 265 4 is_stmt 1 view .LVU140
 265:Src/main.c    **** 			{
 554              		.loc 1 265 6 is_stmt 0 view .LVU141
 555 003e 322B     		cmp	r3, #50
 556 0040 F8D9     		bls	.L30
 267:Src/main.c    **** 				alarmTimestamp = 0;
 557              		.loc 1 267 5 is_stmt 1 view .LVU142
 558 0042 9020     		movs	r0, #144
 559 0044 0022     		movs	r2, #0
 560 0046 4021     		movs	r1, #64
 561 0048 C005     		lsls	r0, r0, #23
 562 004a FFF7FEFF 		bl	HAL_GPIO_WritePin
 563              	.LVL8:
 268:Src/main.c    **** 			}
 564              		.loc 1 268 5 view .LVU143
 268:Src/main.c    **** 			}
 565              		.loc 1 268 20 is_stmt 0 view .LVU144
 566 004e 0023     		movs	r3, #0
 567 0050 2360     		str	r3, [r4]
 568 0052 EFE7     		b	.L30
 569              	.L33:
 273:Src/main.c    **** 		{
 570              		.loc 1 273 8 is_stmt 1 view .LVU145
 273:Src/main.c    **** 		{
 571              		.loc 1 273 10 is_stmt 0 view .LVU146
 572 0054 FA22     		movs	r2, #250
 573 0056 5200     		lsls	r2, r2, #1
 574 0058 9342     		cmp	r3, r2
 575 005a EBD9     		bls	.L30
 275:Src/main.c    **** 			alarmTimestamp = 0;
 576              		.loc 1 275 4 is_stmt 1 view .LVU147
 577 005c 9020     		movs	r0, #144
 578 005e 0022     		movs	r2, #0
 579 0060 4021     		movs	r1, #64
 580 0062 C005     		lsls	r0, r0, #23
 581 0064 FFF7FEFF 		bl	HAL_GPIO_WritePin
 582              	.LVL9:
 276:Src/main.c    **** 			alarmBeepCount = 0;
ARM GAS  D:\Temp\ccpUgK8Y.s 			page 17


 583              		.loc 1 276 4 view .LVU148
 276:Src/main.c    **** 			alarmBeepCount = 0;
 584              		.loc 1 276 19 is_stmt 0 view .LVU149
 585 0068 0023     		movs	r3, #0
 586 006a 2360     		str	r3, [r4]
 277:Src/main.c    **** 		}
 587              		.loc 1 277 4 is_stmt 1 view .LVU150
 277:Src/main.c    **** 		}
 588              		.loc 1 277 19 is_stmt 0 view .LVU151
 589 006c 2B60     		str	r3, [r5]
 590              	.LBE17:
 591              	.LBE16:
 592              		.loc 1 280 1 view .LVU152
 593 006e E1E7     		b	.L30
 594              	.L35:
 595              		.align	2
 596              	.L34:
 597 0070 00000000 		.word	alarmTimestamp
 598 0074 00000000 		.word	alarmBeepCount
 599              		.cfi_endproc
 600              	.LFE42:
 602              		.section	.text.alarmStop,"ax",%progbits
 603              		.align	1
 604              		.global	alarmStop
 605              		.syntax unified
 606              		.code	16
 607              		.thumb_func
 609              	alarmStop:
 610              	.LFB43:
 281:Src/main.c    **** 
 282:Src/main.c    **** void alarmStop(){
 611              		.loc 1 282 17 is_stmt 1 view -0
 612              		.cfi_startproc
 613              		@ args = 0, pretend = 0, frame = 0
 614              		@ frame_needed = 0, uses_anonymous_args = 0
 283:Src/main.c    **** 	isAlarming = false;
 615              		.loc 1 283 2 view .LVU154
 616              		.loc 1 283 13 is_stmt 0 view .LVU155
 617 0000 0022     		movs	r2, #0
 618 0002 064B     		ldr	r3, .L37
 282:Src/main.c    **** 	isAlarming = false;
 619              		.loc 1 282 17 view .LVU156
 620 0004 10B5     		push	{r4, lr}
 621              	.LCFI5:
 622              		.cfi_def_cfa_offset 8
 623              		.cfi_offset 4, -8
 624              		.cfi_offset 14, -4
 284:Src/main.c    **** 	HAL_TIM_Base_Stop_IT(&ALARM_CONTROL_TIMER_HANDLE);
 625              		.loc 1 284 2 view .LVU157
 626 0006 0648     		ldr	r0, .L37+4
 283:Src/main.c    **** 	isAlarming = false;
 627              		.loc 1 283 13 view .LVU158
 628 0008 1A70     		strb	r2, [r3]
 629              		.loc 1 284 2 is_stmt 1 view .LVU159
 630 000a FFF7FEFF 		bl	HAL_TIM_Base_Stop_IT
 631              	.LVL10:
 285:Src/main.c    **** 	HAL_GPIO_WritePin(BUZZER_GPIO_PORT, BUZZER_PIN, SET);
ARM GAS  D:\Temp\ccpUgK8Y.s 			page 18


 632              		.loc 1 285 2 view .LVU160
 286:Src/main.c    **** }
 633              		.loc 1 286 1 is_stmt 0 view .LVU161
 634              		@ sp needed
 285:Src/main.c    **** 	HAL_GPIO_WritePin(BUZZER_GPIO_PORT, BUZZER_PIN, SET);
 635              		.loc 1 285 2 view .LVU162
 636 000e 9020     		movs	r0, #144
 637 0010 0122     		movs	r2, #1
 638 0012 4021     		movs	r1, #64
 639 0014 C005     		lsls	r0, r0, #23
 640 0016 FFF7FEFF 		bl	HAL_GPIO_WritePin
 641              	.LVL11:
 642              		.loc 1 286 1 view .LVU163
 643 001a 10BD     		pop	{r4, pc}
 644              	.L38:
 645              		.align	2
 646              	.L37:
 647 001c 00000000 		.word	isAlarming
 648 0020 00000000 		.word	htim17
 649              		.cfi_endproc
 650              	.LFE43:
 652              		.section	.text.checkAlarm,"ax",%progbits
 653              		.align	1
 654              		.global	checkAlarm
 655              		.syntax unified
 656              		.code	16
 657              		.thumb_func
 659              	checkAlarm:
 660              	.LFB44:
 287:Src/main.c    **** 
 288:Src/main.c    **** void checkAlarm(){
 661              		.loc 1 288 18 is_stmt 1 view -0
 662              		.cfi_startproc
 663              		@ args = 0, pretend = 0, frame = 0
 664              		@ frame_needed = 0, uses_anonymous_args = 0
 289:Src/main.c    **** 	if(alarmHour == time.hours && alarmMin == time.minutes && isAlarmed == false && isAlarmEnabled){
 665              		.loc 1 289 2 view .LVU165
 288:Src/main.c    **** 	if(alarmHour == time.hours && alarmMin == time.minutes && isAlarmed == false && isAlarmEnabled){
 666              		.loc 1 288 18 is_stmt 0 view .LVU166
 667 0000 F8B5     		push	{r3, r4, r5, r6, r7, lr}
 668              	.LCFI6:
 669              		.cfi_def_cfa_offset 24
 670              		.cfi_offset 3, -24
 671              		.cfi_offset 4, -20
 672              		.cfi_offset 5, -16
 673              		.cfi_offset 6, -12
 674              		.cfi_offset 7, -8
 675              		.cfi_offset 14, -4
 676              		.loc 1 289 22 view .LVU167
 677 0002 134C     		ldr	r4, .L51
 678              		.loc 1 289 15 view .LVU168
 679 0004 134E     		ldr	r6, .L51+4
 680              		.loc 1 289 4 view .LVU169
 681 0006 E278     		ldrb	r2, [r4, #3]
 682 0008 3378     		ldrb	r3, [r6]
 683 000a 134D     		ldr	r5, .L51+8
 684 000c 9A42     		cmp	r2, r3
ARM GAS  D:\Temp\ccpUgK8Y.s 			page 19


 685 000e 08D0     		beq	.L40
 686              	.L44:
 290:Src/main.c    **** 		alarmStart();
 291:Src/main.c    **** 	}
 292:Src/main.c    **** 
 293:Src/main.c    **** 	if(alarmHour != time.hours || alarmMin != time.minutes){
 294:Src/main.c    **** 		if(isAlarming){
 687              		.loc 1 294 3 is_stmt 1 view .LVU170
 688              		.loc 1 294 6 is_stmt 0 view .LVU171
 689 0010 124B     		ldr	r3, .L51+12
 690              		.loc 1 294 5 view .LVU172
 691 0012 1B78     		ldrb	r3, [r3]
 692 0014 002B     		cmp	r3, #0
 693 0016 01D0     		beq	.L42
 295:Src/main.c    **** 			alarmStop();
 694              		.loc 1 295 4 is_stmt 1 view .LVU173
 695 0018 FFF7FEFF 		bl	alarmStop
 696              	.LVL12:
 697              	.L42:
 296:Src/main.c    **** 		}
 297:Src/main.c    **** 		isAlarmed = false;
 698              		.loc 1 297 3 view .LVU174
 699              		.loc 1 297 13 is_stmt 0 view .LVU175
 700 001c 0023     		movs	r3, #0
 701 001e 2B70     		strb	r3, [r5]
 298:Src/main.c    **** 	}
 299:Src/main.c    **** }
 702              		.loc 1 299 1 view .LVU176
 703 0020 15E0     		b	.L39
 704              	.L40:
 289:Src/main.c    **** 		alarmStart();
 705              		.loc 1 289 41 discriminator 1 view .LVU177
 706 0022 0F4F     		ldr	r7, .L51+16
 289:Src/main.c    **** 		alarmStart();
 707              		.loc 1 289 29 discriminator 1 view .LVU178
 708 0024 6278     		ldrb	r2, [r4, #1]
 709 0026 3B78     		ldrb	r3, [r7]
 710 0028 9A42     		cmp	r2, r3
 711 002a F1D1     		bne	.L44
 289:Src/main.c    **** 		alarmStart();
 712              		.loc 1 289 57 discriminator 2 view .LVU179
 713 002c 2B78     		ldrb	r3, [r5]
 714 002e 002B     		cmp	r3, #0
 715 0030 0DD1     		bne	.L39
 289:Src/main.c    **** 		alarmStart();
 716              		.loc 1 289 79 discriminator 3 view .LVU180
 717 0032 0C4B     		ldr	r3, .L51+20
 718 0034 1B78     		ldrb	r3, [r3]
 719 0036 002B     		cmp	r3, #0
 720 0038 09D0     		beq	.L39
 290:Src/main.c    **** 	}
 721              		.loc 1 290 3 is_stmt 1 view .LVU181
 722 003a FFF7FEFF 		bl	alarmStart
 723              	.LVL13:
 293:Src/main.c    **** 		if(isAlarming){
 724              		.loc 1 293 2 view .LVU182
 293:Src/main.c    **** 		if(isAlarming){
ARM GAS  D:\Temp\ccpUgK8Y.s 			page 20


 725              		.loc 1 293 4 is_stmt 0 view .LVU183
 726 003e E278     		ldrb	r2, [r4, #3]
 727 0040 3378     		ldrb	r3, [r6]
 728 0042 9A42     		cmp	r2, r3
 729 0044 E4D1     		bne	.L44
 293:Src/main.c    **** 		if(isAlarming){
 730              		.loc 1 293 29 discriminator 1 view .LVU184
 731 0046 6278     		ldrb	r2, [r4, #1]
 732 0048 3B78     		ldrb	r3, [r7]
 733 004a 9A42     		cmp	r2, r3
 734 004c E0D1     		bne	.L44
 735              	.L39:
 736              		.loc 1 299 1 view .LVU185
 737              		@ sp needed
 738 004e F8BD     		pop	{r3, r4, r5, r6, r7, pc}
 739              	.L52:
 740              		.align	2
 741              	.L51:
 742 0050 00000000 		.word	time
 743 0054 00000000 		.word	alarmHour
 744 0058 00000000 		.word	isAlarmed
 745 005c 00000000 		.word	isAlarming
 746 0060 00000000 		.word	alarmMin
 747 0064 00000000 		.word	isAlarmEnabled
 748              		.cfi_endproc
 749              	.LFE44:
 751              		.section	.text.refreshTemperture,"ax",%progbits
 752              		.align	1
 753              		.global	refreshTemperture
 754              		.syntax unified
 755              		.code	16
 756              		.thumb_func
 758              	refreshTemperture:
 759              	.LFB45:
 300:Src/main.c    **** 
 301:Src/main.c    **** void refreshTemperture(){
 760              		.loc 1 301 25 is_stmt 1 view -0
 761              		.cfi_startproc
 762              		@ args = 0, pretend = 0, frame = 0
 763              		@ frame_needed = 0, uses_anonymous_args = 0
 302:Src/main.c    **** 	// 开启温度转换ADC
 303:Src/main.c    **** 
 304:Src/main.c    **** 	uint32_t value;
 764              		.loc 1 304 2 view .LVU187
 305:Src/main.c    **** 	uint32_t srcValue = adcValue[1];
 765              		.loc 1 305 2 view .LVU188
 301:Src/main.c    **** 	// 开启温度转换ADC
 766              		.loc 1 301 25 is_stmt 0 view .LVU189
 767 0000 30B5     		push	{r4, r5, lr}
 768              	.LCFI7:
 769              		.cfi_def_cfa_offset 12
 770              		.cfi_offset 4, -12
 771              		.cfi_offset 5, -8
 772              		.cfi_offset 14, -4
 773              		.loc 1 305 11 view .LVU190
 774 0002 134B     		ldr	r3, .L61
 306:Src/main.c    **** 
ARM GAS  D:\Temp\ccpUgK8Y.s 			page 21


 307:Src/main.c    **** 	if(tempBuffered < TEMP_BUFFER_SIZE)
 775              		.loc 1 307 18 view .LVU191
 776 0004 134C     		ldr	r4, .L61+4
 305:Src/main.c    **** 
 777              		.loc 1 305 11 view .LVU192
 778 0006 5A68     		ldr	r2, [r3, #4]
 779              	.LVL14:
 780              		.loc 1 307 2 is_stmt 1 view .LVU193
 781              		.loc 1 307 18 is_stmt 0 view .LVU194
 782 0008 2178     		ldrb	r1, [r4]
 783 000a 134B     		ldr	r3, .L61+8
 308:Src/main.c    **** 	{
 309:Src/main.c    **** 		tempBuffer[tempBuffered++] = (uint16_t)srcValue;
 784              		.loc 1 309 32 view .LVU195
 785 000c 90B2     		uxth	r0, r2
 307:Src/main.c    **** 	{
 786              		.loc 1 307 4 view .LVU196
 787 000e 0729     		cmp	r1, #7
 788 0010 11D8     		bhi	.L54
 789              		.loc 1 309 3 is_stmt 1 view .LVU197
 790              		.loc 1 309 26 is_stmt 0 view .LVU198
 791 0012 4D1C     		adds	r5, r1, #1
 792              		.loc 1 309 30 view .LVU199
 793 0014 4900     		lsls	r1, r1, #1
 794              		.loc 1 309 26 view .LVU200
 795 0016 2570     		strb	r5, [r4]
 796              		.loc 1 309 30 view .LVU201
 797 0018 5852     		strh	r0, [r3, r1]
 310:Src/main.c    **** 		value = srcValue;
 798              		.loc 1 310 3 is_stmt 1 view .LVU202
 799              	.LVL15:
 800              	.L55:
 311:Src/main.c    **** 	}
 312:Src/main.c    **** 	else{
 313:Src/main.c    **** 		tempBuffer[TEMP_BUFFER_SIZE] = (uint16_t)srcValue;
 314:Src/main.c    **** 		value = 0;
 315:Src/main.c    **** 		for(uint8_t i = 0; i < TEMP_BUFFER_SIZE; i++)
 316:Src/main.c    **** 		{
 317:Src/main.c    **** 			tempBuffer[i] = tempBuffer[i+1];
 318:Src/main.c    **** 			value += tempBuffer[i];
 319:Src/main.c    **** 		}
 320:Src/main.c    **** 		value = value / TEMP_BUFFER_SIZE;
 321:Src/main.c    **** 	}
 322:Src/main.c    **** 
 323:Src/main.c    **** 	for(uint8_t i = 0; i < TEMP_MAP_SIZE; i++)
 801              		.loc 1 323 2 view .LVU203
 802              	.LBB18:
 803              		.loc 1 323 6 view .LVU204
 804              		.loc 1 323 23 discriminator 1 view .LVU205
 805              		.loc 1 323 14 is_stmt 0 view .LVU206
 806 001a 0023     		movs	r3, #0
 807 001c 0F49     		ldr	r1, .L61+12
 808              	.LVL16:
 809              	.L58:
 324:Src/main.c    **** 	{
 325:Src/main.c    **** 		if(value <= tempertureMap[i]){
 810              		.loc 1 325 3 is_stmt 1 view .LVU207
ARM GAS  D:\Temp\ccpUgK8Y.s 			page 22


 811              		.loc 1 325 28 is_stmt 0 view .LVU208
 812 001e 0888     		ldrh	r0, [r1]
 813              		.loc 1 325 5 view .LVU209
 814 0020 9042     		cmp	r0, r2
 815 0022 05D2     		bcs	.L57
 323:Src/main.c    **** 	{
 816              		.loc 1 323 41 is_stmt 1 discriminator 2 view .LVU210
 817 0024 0133     		adds	r3, r3, #1
 818              	.LVL17:
 323:Src/main.c    **** 	{
 819              		.loc 1 323 41 is_stmt 0 discriminator 2 view .LVU211
 820 0026 DBB2     		uxtb	r3, r3
 821              	.LVL18:
 323:Src/main.c    **** 	{
 822              		.loc 1 323 23 is_stmt 1 discriminator 1 view .LVU212
 823 0028 0231     		adds	r1, r1, #2
 824 002a 7E2B     		cmp	r3, #126
 825 002c F7D1     		bne	.L58
 826 002e 0023     		movs	r3, #0
 827              	.LVL19:
 828              	.L57:
 323:Src/main.c    **** 	{
 829              		.loc 1 323 23 is_stmt 0 discriminator 1 view .LVU213
 830              	.LBE18:
 326:Src/main.c    **** 			temperture = i;
 327:Src/main.c    **** 			return;
 328:Src/main.c    **** 		}
 329:Src/main.c    **** 	}
 330:Src/main.c    **** 
 331:Src/main.c    **** 	temperture = 0;
 332:Src/main.c    **** 	return;
 333:Src/main.c    **** }
 831              		.loc 1 333 1 view .LVU214
 832              		@ sp needed
 833              	.LBB19:
 326:Src/main.c    **** 			temperture = i;
 834              		.loc 1 326 15 view .LVU215
 835 0030 0B4A     		ldr	r2, .L61+16
 836              	.LVL20:
 326:Src/main.c    **** 			temperture = i;
 837              		.loc 1 326 15 view .LVU216
 838 0032 1370     		strb	r3, [r2]
 839              	.LBE19:
 840              		.loc 1 333 1 view .LVU217
 841 0034 30BD     		pop	{r4, r5, pc}
 842              	.LVL21:
 843              	.L54:
 313:Src/main.c    **** 		value = 0;
 844              		.loc 1 313 3 is_stmt 1 view .LVU218
 313:Src/main.c    **** 		value = 0;
 845              		.loc 1 313 32 is_stmt 0 view .LVU219
 846 0036 0821     		movs	r1, #8
 314:Src/main.c    **** 		for(uint8_t i = 0; i < TEMP_BUFFER_SIZE; i++)
 847              		.loc 1 314 9 view .LVU220
 848 0038 0022     		movs	r2, #0
 849              	.LVL22:
 313:Src/main.c    **** 		value = 0;
ARM GAS  D:\Temp\ccpUgK8Y.s 			page 23


 850              		.loc 1 313 32 view .LVU221
 851 003a 1882     		strh	r0, [r3, #16]
 314:Src/main.c    **** 		for(uint8_t i = 0; i < TEMP_BUFFER_SIZE; i++)
 852              		.loc 1 314 3 is_stmt 1 view .LVU222
 853              	.LVL23:
 315:Src/main.c    **** 		{
 854              		.loc 1 315 3 view .LVU223
 855              	.LBB20:
 315:Src/main.c    **** 		{
 856              		.loc 1 315 7 view .LVU224
 315:Src/main.c    **** 		{
 857              		.loc 1 315 24 discriminator 1 view .LVU225
 858              	.L56:
 317:Src/main.c    **** 			value += tempBuffer[i];
 859              		.loc 1 317 4 view .LVU226
 317:Src/main.c    **** 			value += tempBuffer[i];
 860              		.loc 1 317 30 is_stmt 0 view .LVU227
 861 003c 5888     		ldrh	r0, [r3, #2]
 315:Src/main.c    **** 		{
 862              		.loc 1 315 24 discriminator 1 view .LVU228
 863 003e 0139     		subs	r1, r1, #1
 864              	.LVL24:
 315:Src/main.c    **** 		{
 865              		.loc 1 315 24 discriminator 1 view .LVU229
 866 0040 C9B2     		uxtb	r1, r1
 867              	.LVL25:
 317:Src/main.c    **** 			value += tempBuffer[i];
 868              		.loc 1 317 18 view .LVU230
 869 0042 1880     		strh	r0, [r3]
 318:Src/main.c    **** 		}
 870              		.loc 1 318 4 is_stmt 1 view .LVU231
 318:Src/main.c    **** 		}
 871              		.loc 1 318 10 is_stmt 0 view .LVU232
 872 0044 1218     		adds	r2, r2, r0
 873              	.LVL26:
 315:Src/main.c    **** 		{
 874              		.loc 1 315 45 is_stmt 1 discriminator 3 view .LVU233
 315:Src/main.c    **** 		{
 875              		.loc 1 315 24 discriminator 1 view .LVU234
 876 0046 0233     		adds	r3, r3, #2
 877 0048 0029     		cmp	r1, #0
 878 004a F7D1     		bne	.L56
 879              	.LBE20:
 320:Src/main.c    **** 	}
 880              		.loc 1 320 3 view .LVU235
 320:Src/main.c    **** 	}
 881              		.loc 1 320 9 is_stmt 0 view .LVU236
 882 004c D208     		lsrs	r2, r2, #3
 883              	.LVL27:
 320:Src/main.c    **** 	}
 884              		.loc 1 320 9 view .LVU237
 885 004e E4E7     		b	.L55
 886              	.L62:
 887              		.align	2
 888              	.L61:
 889 0050 00000000 		.word	adcValue
 890 0054 00000000 		.word	tempBuffered
ARM GAS  D:\Temp\ccpUgK8Y.s 			page 24


 891 0058 00000000 		.word	tempBuffer
 892 005c 00000000 		.word	tempertureMap
 893 0060 00000000 		.word	temperture
 894              		.cfi_endproc
 895              	.LFE45:
 897              		.global	__aeabi_uidiv
 898              		.global	__aeabi_uidivmod
 899              		.section	.text.refreshTimeDisplay,"ax",%progbits
 900              		.align	1
 901              		.global	refreshTimeDisplay
 902              		.syntax unified
 903              		.code	16
 904              		.thumb_func
 906              	refreshTimeDisplay:
 907              	.LFB46:
 334:Src/main.c    **** 
 335:Src/main.c    **** void refreshTimeDisplay() {
 908              		.loc 1 335 27 is_stmt 1 view -0
 909              		.cfi_startproc
 910              		@ args = 0, pretend = 0, frame = 0
 911              		@ frame_needed = 0, uses_anonymous_args = 0
 336:Src/main.c    **** 	TimeNow(&time);
 912              		.loc 1 336 2 view .LVU239
 335:Src/main.c    **** 	TimeNow(&time);
 913              		.loc 1 335 27 is_stmt 0 view .LVU240
 914 0000 70B5     		push	{r4, r5, r6, lr}
 915              	.LCFI8:
 916              		.cfi_def_cfa_offset 16
 917              		.cfi_offset 4, -16
 918              		.cfi_offset 5, -12
 919              		.cfi_offset 6, -8
 920              		.cfi_offset 14, -4
 921              		.loc 1 336 2 view .LVU241
 922 0002 344C     		ldr	r4, .L72
 923 0004 2000     		movs	r0, r4
 924 0006 FFF7FEFF 		bl	TimeNow
 925              	.LVL28:
 337:Src/main.c    **** 	lastTime = time;
 926              		.loc 1 337 2 is_stmt 1 view .LVU242
 927              		.loc 1 337 11 is_stmt 0 view .LVU243
 928 000a 0822     		movs	r2, #8
 929 000c 2100     		movs	r1, r4
 930 000e 3248     		ldr	r0, .L72+4
 931 0010 FFF7FEFF 		bl	memcpy
 932              	.LVL29:
 338:Src/main.c    **** 	if (currentMode == MODE_SHOW_TIME) {
 933              		.loc 1 338 2 is_stmt 1 view .LVU244
 934              		.loc 1 338 18 is_stmt 0 view .LVU245
 935 0014 314B     		ldr	r3, .L72+8
 936 0016 1D78     		ldrb	r5, [r3]
 937              		.loc 1 338 5 view .LVU246
 938 0018 002D     		cmp	r5, #0
 939 001a 13D1     		bne	.L64
 940              	.LBB21:
 339:Src/main.c    **** 		uint16_t number = time.hours * 100 + time.minutes;
 941              		.loc 1 339 3 is_stmt 1 view .LVU247
 942              	.LVL30:
ARM GAS  D:\Temp\ccpUgK8Y.s 			page 25


 340:Src/main.c    **** 		TM1637ShowNumberRight(3, number, blinkControl ? 2 : 0xFF, 1);
 943              		.loc 1 340 3 view .LVU248
 339:Src/main.c    **** 		uint16_t number = time.hours * 100 + time.minutes;
 944              		.loc 1 339 38 is_stmt 0 view .LVU249
 945 001c 6422     		movs	r2, #100
 946 001e E378     		ldrb	r3, [r4, #3]
 339:Src/main.c    **** 		uint16_t number = time.hours * 100 + time.minutes;
 947              		.loc 1 339 44 view .LVU250
 948 0020 6178     		ldrb	r1, [r4, #1]
 339:Src/main.c    **** 		uint16_t number = time.hours * 100 + time.minutes;
 949              		.loc 1 339 38 view .LVU251
 950 0022 5343     		muls	r3, r2
 951              		.loc 1 340 3 view .LVU252
 952 0024 C918     		adds	r1, r1, r3
 953              		.loc 1 340 49 view .LVU253
 954 0026 2E4B     		ldr	r3, .L72+12
 955              		.loc 1 340 3 discriminator 2 view .LVU254
 956 0028 9B32     		adds	r2, r2, #155
 957              		.loc 1 340 3 view .LVU255
 958 002a 1B78     		ldrb	r3, [r3]
 959 002c 002B     		cmp	r3, #0
 960 002e 00D0     		beq	.L65
 961              		.loc 1 340 3 discriminator 1 view .LVU256
 962 0030 FD3A     		subs	r2, r2, #253
 963              	.L65:
 964              		.loc 1 340 3 discriminator 4 view .LVU257
 965 0032 0123     		movs	r3, #1
 966 0034 0320     		movs	r0, #3
 967 0036 FFF7FEFF 		bl	TM1637ShowNumberRight
 968              	.LVL31:
 969              	.L66:
 970              		.loc 1 340 3 discriminator 4 view .LVU258
 971              	.LBE21:
 341:Src/main.c    **** 	}
 342:Src/main.c    **** 	else if (currentMode == MODE_SHOW_SECOND) {
 343:Src/main.c    **** 		TM1637SetChar(0, ' ', false);
 344:Src/main.c    **** 		TM1637SetChar(1, ' ', true);
 345:Src/main.c    **** 		TM1637SetChar(2, time.seconds / 10 + '0', false);
 346:Src/main.c    **** 		TM1637SetChar(3, time.seconds % 10 + '0', false);
 347:Src/main.c    **** 	}
 348:Src/main.c    **** 	else if (currentMode == MODE_SHOW_TEMPERTURE){
 349:Src/main.c    **** 		refreshTemperture();
 350:Src/main.c    **** 		if(temperture > 99){
 351:Src/main.c    **** 			temperture = 99;
 352:Src/main.c    **** 		}
 353:Src/main.c    **** 		TM1637SetChar(0, ' ', false);
 354:Src/main.c    **** 		TM1637SetChar(1, temperture / 10 + '0', false);
 355:Src/main.c    **** 		TM1637SetChar(2, temperture % 10 + '0', false);
 356:Src/main.c    **** 		TM1637SetChar(3, 'C', false);
 357:Src/main.c    **** 	}
 358:Src/main.c    **** 
 359:Src/main.c    **** 	checkAlarm();
 972              		.loc 1 359 2 is_stmt 1 view .LVU259
 360:Src/main.c    **** 	checkRingOnTime();
 361:Src/main.c    **** }
 973              		.loc 1 361 1 is_stmt 0 view .LVU260
 974              		@ sp needed
ARM GAS  D:\Temp\ccpUgK8Y.s 			page 26


 359:Src/main.c    **** 	checkRingOnTime();
 975              		.loc 1 359 2 view .LVU261
 976 003a FFF7FEFF 		bl	checkAlarm
 977              	.LVL32:
 360:Src/main.c    **** 	checkRingOnTime();
 978              		.loc 1 360 2 is_stmt 1 view .LVU262
 979 003e FFF7FEFF 		bl	checkRingOnTime
 980              	.LVL33:
 981              		.loc 1 361 1 is_stmt 0 view .LVU263
 982 0042 70BD     		pop	{r4, r5, r6, pc}
 983              	.L64:
 342:Src/main.c    **** 		TM1637SetChar(0, ' ', false);
 984              		.loc 1 342 7 is_stmt 1 view .LVU264
 342:Src/main.c    **** 		TM1637SetChar(0, ' ', false);
 985              		.loc 1 342 10 is_stmt 0 view .LVU265
 986 0044 012D     		cmp	r5, #1
 987 0046 1ED1     		bne	.L67
 343:Src/main.c    **** 		TM1637SetChar(1, ' ', true);
 988              		.loc 1 343 3 is_stmt 1 view .LVU266
 989 0048 0022     		movs	r2, #0
 990 004a 2021     		movs	r1, #32
 991 004c 1000     		movs	r0, r2
 992 004e FFF7FEFF 		bl	TM1637SetChar
 993              	.LVL34:
 344:Src/main.c    **** 		TM1637SetChar(2, time.seconds / 10 + '0', false);
 994              		.loc 1 344 3 view .LVU267
 995 0052 2A00     		movs	r2, r5
 996 0054 2021     		movs	r1, #32
 997 0056 2800     		movs	r0, r5
 998 0058 FFF7FEFF 		bl	TM1637SetChar
 999              	.LVL35:
 345:Src/main.c    **** 		TM1637SetChar(3, time.seconds % 10 + '0', false);
 1000              		.loc 1 345 3 view .LVU268
 1001 005c 0A21     		movs	r1, #10
 1002 005e 2078     		ldrb	r0, [r4]
 1003 0060 FFF7FEFF 		bl	__aeabi_uidiv
 1004              	.LVL36:
 1005 0064 3030     		adds	r0, r0, #48
 1006 0066 0022     		movs	r2, #0
 1007 0068 C1B2     		uxtb	r1, r0
 1008 006a 0220     		movs	r0, #2
 1009 006c FFF7FEFF 		bl	TM1637SetChar
 1010              	.LVL37:
 346:Src/main.c    **** 	}
 1011              		.loc 1 346 3 view .LVU269
 1012 0070 0A21     		movs	r1, #10
 1013 0072 2078     		ldrb	r0, [r4]
 1014 0074 FFF7FEFF 		bl	__aeabi_uidivmod
 1015              	.LVL38:
 1016 0078 0022     		movs	r2, #0
 1017 007a 3031     		adds	r1, r1, #48
 1018 007c C9B2     		uxtb	r1, r1
 1019              	.L71:
 356:Src/main.c    **** 	}
 1020              		.loc 1 356 3 is_stmt 0 view .LVU270
 1021 007e 0320     		movs	r0, #3
 1022 0080 FFF7FEFF 		bl	TM1637SetChar
ARM GAS  D:\Temp\ccpUgK8Y.s 			page 27


 1023              	.LVL39:
 1024 0084 D9E7     		b	.L66
 1025              	.L67:
 348:Src/main.c    **** 		refreshTemperture();
 1026              		.loc 1 348 7 is_stmt 1 view .LVU271
 348:Src/main.c    **** 		refreshTemperture();
 1027              		.loc 1 348 10 is_stmt 0 view .LVU272
 1028 0086 022D     		cmp	r5, #2
 1029 0088 D7D1     		bne	.L66
 349:Src/main.c    **** 		if(temperture > 99){
 1030              		.loc 1 349 3 is_stmt 1 view .LVU273
 1031 008a FFF7FEFF 		bl	refreshTemperture
 1032              	.LVL40:
 350:Src/main.c    **** 			temperture = 99;
 1033              		.loc 1 350 3 view .LVU274
 350:Src/main.c    **** 			temperture = 99;
 1034              		.loc 1 350 17 is_stmt 0 view .LVU275
 1035 008e 154C     		ldr	r4, .L72+16
 350:Src/main.c    **** 			temperture = 99;
 1036              		.loc 1 350 5 view .LVU276
 1037 0090 2378     		ldrb	r3, [r4]
 1038 0092 632B     		cmp	r3, #99
 1039 0094 01D9     		bls	.L68
 351:Src/main.c    **** 		}
 1040              		.loc 1 351 4 is_stmt 1 view .LVU277
 351:Src/main.c    **** 		}
 1041              		.loc 1 351 15 is_stmt 0 view .LVU278
 1042 0096 6323     		movs	r3, #99
 1043 0098 2370     		strb	r3, [r4]
 1044              	.L68:
 353:Src/main.c    **** 		TM1637SetChar(1, temperture / 10 + '0', false);
 1045              		.loc 1 353 3 is_stmt 1 view .LVU279
 1046 009a 0022     		movs	r2, #0
 1047 009c 2021     		movs	r1, #32
 1048 009e 1000     		movs	r0, r2
 1049 00a0 FFF7FEFF 		bl	TM1637SetChar
 1050              	.LVL41:
 354:Src/main.c    **** 		TM1637SetChar(2, temperture % 10 + '0', false);
 1051              		.loc 1 354 3 view .LVU280
 1052 00a4 0A21     		movs	r1, #10
 1053 00a6 2078     		ldrb	r0, [r4]
 1054 00a8 FFF7FEFF 		bl	__aeabi_uidiv
 1055              	.LVL42:
 1056 00ac 3030     		adds	r0, r0, #48
 1057 00ae 0022     		movs	r2, #0
 1058 00b0 C1B2     		uxtb	r1, r0
 1059 00b2 0120     		movs	r0, #1
 1060 00b4 FFF7FEFF 		bl	TM1637SetChar
 1061              	.LVL43:
 355:Src/main.c    **** 		TM1637SetChar(3, 'C', false);
 1062              		.loc 1 355 3 view .LVU281
 1063 00b8 2078     		ldrb	r0, [r4]
 1064 00ba 0A21     		movs	r1, #10
 1065 00bc FFF7FEFF 		bl	__aeabi_uidivmod
 1066              	.LVL44:
 1067 00c0 3031     		adds	r1, r1, #48
 1068 00c2 0022     		movs	r2, #0
ARM GAS  D:\Temp\ccpUgK8Y.s 			page 28


 1069 00c4 C9B2     		uxtb	r1, r1
 1070 00c6 0220     		movs	r0, #2
 1071 00c8 FFF7FEFF 		bl	TM1637SetChar
 1072              	.LVL45:
 356:Src/main.c    **** 	}
 1073              		.loc 1 356 3 view .LVU282
 1074 00cc 0022     		movs	r2, #0
 1075 00ce 4321     		movs	r1, #67
 1076 00d0 D5E7     		b	.L71
 1077              	.L73:
 1078 00d2 C046     		.align	2
 1079              	.L72:
 1080 00d4 00000000 		.word	time
 1081 00d8 00000000 		.word	lastTime
 1082 00dc 00000000 		.word	currentMode
 1083 00e0 00000000 		.word	blinkControl
 1084 00e4 00000000 		.word	temperture
 1085              		.cfi_endproc
 1086              	.LFE46:
 1088              		.section	.text.refreshSettingsDisplay,"ax",%progbits
 1089              		.align	1
 1090              		.global	refreshSettingsDisplay
 1091              		.syntax unified
 1092              		.code	16
 1093              		.thumb_func
 1095              	refreshSettingsDisplay:
 1096              	.LFB47:
 362:Src/main.c    **** 
 363:Src/main.c    **** void refreshSettingsDisplay(){
 1097              		.loc 1 363 30 view -0
 1098              		.cfi_startproc
 1099              		@ args = 0, pretend = 0, frame = 8
 1100              		@ frame_needed = 0, uses_anonymous_args = 0
 364:Src/main.c    **** 	char disp[5] = {0};
 1101              		.loc 1 364 2 view .LVU284
 1102              	.LVL46:
 365:Src/main.c    **** 	if(currentMode == MODE_SET_HOUR){
 1103              		.loc 1 365 2 view .LVU285
 363:Src/main.c    **** 	char disp[5] = {0};
 1104              		.loc 1 363 30 is_stmt 0 view .LVU286
 1105 0000 F7B5     		push	{r0, r1, r2, r4, r5, r6, r7, lr}
 1106              	.LCFI9:
 1107              		.cfi_def_cfa_offset 32
 1108              		.cfi_offset 0, -32
 1109              		.cfi_offset 1, -28
 1110              		.cfi_offset 2, -24
 1111              		.cfi_offset 4, -20
 1112              		.cfi_offset 5, -16
 1113              		.cfi_offset 6, -12
 1114              		.cfi_offset 7, -8
 1115              		.cfi_offset 14, -4
 1116              		.loc 1 365 17 view .LVU287
 1117 0002 A24B     		ldr	r3, .L125
 1118 0004 1878     		ldrb	r0, [r3]
 1119 0006 0338     		subs	r0, r0, #3
 1120 0008 0C28     		cmp	r0, #12
 1121 000a 00D9     		bls	.LCB894
ARM GAS  D:\Temp\ccpUgK8Y.s 			page 29


 1122 000c 17E1     		b	.L92	@long jump
 1123              	.LCB894:
 1124 000e FFF7FEFF 		bl	__gnu_thumb1_case_uhi
 1125              	.L77:
 1126 0012 0D00     		.2byte	(.L89-.L77)/2
 1127 0014 2F00     		.2byte	(.L88-.L77)/2
 1128 0016 4700     		.2byte	(.L87-.L77)/2
 1129 0018 5400     		.2byte	(.L86-.L77)/2
 1130 001a 6B00     		.2byte	(.L85-.L77)/2
 1131 001c 9400     		.2byte	(.L84-.L77)/2
 1132 001e AA00     		.2byte	(.L83-.L77)/2
 1133 0020 BE00     		.2byte	(.L82-.L77)/2
 1134 0022 CC00     		.2byte	(.L81-.L77)/2
 1135 0024 D700     		.2byte	(.L80-.L77)/2
 1136 0026 E200     		.2byte	(.L79-.L77)/2
 1137 0028 EE00     		.2byte	(.L78-.L77)/2
 1138 002a 0201     		.2byte	(.L76-.L77)/2
 1139              		.p2align 1
 1140              	.L89:
 366:Src/main.c    **** 		disp[0] = blinkControl ? ' ' : (lastTime.hours / 10 + '0');
 1141              		.loc 1 366 3 is_stmt 1 view .LVU288
 1142              		.loc 1 366 11 is_stmt 0 discriminator 2 view .LVU289
 1143 002c 2026     		movs	r6, #32
 1144              		.loc 1 366 26 view .LVU290
 1145 002e 984B     		ldr	r3, .L125+4
 367:Src/main.c    **** 		disp[1] = blinkControl ? ' ' : (lastTime.hours % 10 + '0');
 1146              		.loc 1 367 11 discriminator 2 view .LVU291
 1147 0030 3700     		movs	r7, r6
 366:Src/main.c    **** 		disp[0] = blinkControl ? ' ' : (lastTime.hours / 10 + '0');
 1148              		.loc 1 366 11 view .LVU292
 1149 0032 1B78     		ldrb	r3, [r3]
 1150 0034 974C     		ldr	r4, .L125+8
 1151 0036 002B     		cmp	r3, #0
 1152 0038 0CD1     		bne	.L90
 366:Src/main.c    **** 		disp[0] = blinkControl ? ' ' : (lastTime.hours / 10 + '0');
 1153              		.loc 1 366 43 discriminator 1 view .LVU293
 1154 003a E578     		ldrb	r5, [r4, #3]
 366:Src/main.c    **** 		disp[0] = blinkControl ? ' ' : (lastTime.hours / 10 + '0');
 1155              		.loc 1 366 55 discriminator 1 view .LVU294
 1156 003c 0A21     		movs	r1, #10
 1157 003e 2800     		movs	r0, r5
 1158 0040 FFF7FEFF 		bl	__aeabi_uidiv
 1159              	.LVL47:
 366:Src/main.c    **** 		disp[0] = blinkControl ? ' ' : (lastTime.hours / 10 + '0');
 1160              		.loc 1 366 11 discriminator 1 view .LVU295
 1161 0044 3030     		adds	r0, r0, #48
 1162              		.loc 1 367 55 discriminator 1 view .LVU296
 1163 0046 0A21     		movs	r1, #10
 366:Src/main.c    **** 		disp[0] = blinkControl ? ' ' : (lastTime.hours / 10 + '0');
 1164              		.loc 1 366 11 discriminator 1 view .LVU297
 1165 0048 C6B2     		uxtb	r6, r0
 1166              	.LVL48:
 1167              		.loc 1 367 3 is_stmt 1 view .LVU298
 1168              		.loc 1 367 55 is_stmt 0 discriminator 1 view .LVU299
 1169 004a 2800     		movs	r0, r5
 1170 004c FFF7FEFF 		bl	__aeabi_uidivmod
 1171              	.LVL49:
ARM GAS  D:\Temp\ccpUgK8Y.s 			page 30


 1172              		.loc 1 367 11 discriminator 1 view .LVU300
 1173 0050 3031     		adds	r1, r1, #48
 1174 0052 CFB2     		uxtb	r7, r1
 1175              	.LVL50:
 1176              	.L90:
 368:Src/main.c    **** 		disp[2] = lastTime.minutes / 10  + '0';
 1177              		.loc 1 368 3 is_stmt 1 view .LVU301
 1178              		.loc 1 368 21 is_stmt 0 view .LVU302
 1179 0054 6478     		ldrb	r4, [r4, #1]
 1180              	.LVL51:
 1181              	.L110:
 369:Src/main.c    **** 		disp[3] = lastTime.minutes % 10  + '0';
 370:Src/main.c    **** 	}
 371:Src/main.c    **** 	else if(currentMode == MODE_SET_MINUTE){
 372:Src/main.c    **** 		disp[0] = lastTime.hours / 10 + '0';
 373:Src/main.c    **** 		disp[1] = lastTime.hours % 10 + '0';
 374:Src/main.c    **** 		disp[2] = blinkControl ? ' ' : lastTime.minutes / 10  + '0';
 375:Src/main.c    **** 		disp[3] = blinkControl ? ' ' : lastTime.minutes % 10  + '0';
 376:Src/main.c    **** 	}
 377:Src/main.c    **** 	else if(currentMode == MODE_SET_ALARM_ENABLE){
 378:Src/main.c    **** 		disp[0] = 'A';
 379:Src/main.c    **** 		disp[1] = 'L';
 380:Src/main.c    **** 		disp[2] = blinkControl ? ' ' : 'o' ;
 381:Src/main.c    **** 		disp[3] = blinkControl ? ' ' : isAlarmEnabled ? 'n' : 'F';
 382:Src/main.c    **** 	}
 383:Src/main.c    **** 	else if(currentMode == MODE_SET_ALARM_HOUR){
 384:Src/main.c    **** 		disp[0] = blinkControl ? ' ' : (alarmHour / 10 + '0');
 385:Src/main.c    **** 		disp[1] = blinkControl ? ' ' : (alarmHour % 10 + '0');
 386:Src/main.c    **** 		disp[2] = alarmMin / 10  + '0';
 387:Src/main.c    **** 		disp[3] = alarmMin % 10  + '0';
 388:Src/main.c    **** 	}
 389:Src/main.c    **** 	else if(currentMode == MODE_SET_ALARM_MINUTE){
 390:Src/main.c    **** 		disp[0] = alarmHour / 10 + '0';
 391:Src/main.c    **** 		disp[1] = alarmHour % 10 + '0';
 392:Src/main.c    **** 		disp[2] = blinkControl ? ' ' : alarmMin / 10  + '0';
 1182              		.loc 1 392 49 discriminator 1 view .LVU303
 1183 0056 0A21     		movs	r1, #10
 1184 0058 2000     		movs	r0, r4
 1185 005a FFF7FEFF 		bl	__aeabi_uidiv
 1186              	.LVL52:
 1187              		.loc 1 392 11 discriminator 1 view .LVU304
 1188 005e 3030     		adds	r0, r0, #48
 393:Src/main.c    **** 		disp[3] = blinkControl ? ' ' : alarmMin % 10  + '0';
 1189              		.loc 1 393 49 discriminator 1 view .LVU305
 1190 0060 0A21     		movs	r1, #10
 392:Src/main.c    **** 		disp[3] = blinkControl ? ' ' : alarmMin % 10  + '0';
 1191              		.loc 1 392 11 discriminator 1 view .LVU306
 1192 0062 C5B2     		uxtb	r5, r0
 1193              	.LVL53:
 1194              		.loc 1 393 3 is_stmt 1 view .LVU307
 1195              		.loc 1 393 49 is_stmt 0 discriminator 1 view .LVU308
 1196 0064 2000     		movs	r0, r4
 1197 0066 FFF7FEFF 		bl	__aeabi_uidivmod
 1198              	.LVL54:
 1199              		.loc 1 393 11 discriminator 1 view .LVU309
 1200 006a 3031     		adds	r1, r1, #48
 1201 006c CCB2     		uxtb	r4, r1
ARM GAS  D:\Temp\ccpUgK8Y.s 			page 31


 1202 006e 4FE0     		b	.L75
 1203              	.LVL55:
 1204              	.L88:
 372:Src/main.c    **** 		disp[1] = lastTime.hours % 10 + '0';
 1205              		.loc 1 372 3 is_stmt 1 view .LVU310
 372:Src/main.c    **** 		disp[1] = lastTime.hours % 10 + '0';
 1206              		.loc 1 372 21 is_stmt 0 view .LVU311
 1207 0070 884B     		ldr	r3, .L125+8
 372:Src/main.c    **** 		disp[1] = lastTime.hours % 10 + '0';
 1208              		.loc 1 372 33 view .LVU312
 1209 0072 0A21     		movs	r1, #10
 372:Src/main.c    **** 		disp[1] = lastTime.hours % 10 + '0';
 1210              		.loc 1 372 21 view .LVU313
 1211 0074 0193     		str	r3, [sp, #4]
 1212 0076 DC78     		ldrb	r4, [r3, #3]
 372:Src/main.c    **** 		disp[1] = lastTime.hours % 10 + '0';
 1213              		.loc 1 372 33 view .LVU314
 1214 0078 2000     		movs	r0, r4
 1215 007a FFF7FEFF 		bl	__aeabi_uidiv
 1216              	.LVL56:
 1217 007e 3030     		adds	r0, r0, #48
 373:Src/main.c    **** 		disp[2] = blinkControl ? ' ' : lastTime.minutes / 10  + '0';
 1218              		.loc 1 373 33 view .LVU315
 1219 0080 0A21     		movs	r1, #10
 372:Src/main.c    **** 		disp[1] = lastTime.hours % 10 + '0';
 1220              		.loc 1 372 33 view .LVU316
 1221 0082 C6B2     		uxtb	r6, r0
 1222              	.LVL57:
 373:Src/main.c    **** 		disp[2] = blinkControl ? ' ' : lastTime.minutes / 10  + '0';
 1223              		.loc 1 373 3 is_stmt 1 view .LVU317
 373:Src/main.c    **** 		disp[2] = blinkControl ? ' ' : lastTime.minutes / 10  + '0';
 1224              		.loc 1 373 33 is_stmt 0 view .LVU318
 1225 0084 2000     		movs	r0, r4
 1226 0086 FFF7FEFF 		bl	__aeabi_uidivmod
 1227              	.LVL58:
 375:Src/main.c    **** 	}
 1228              		.loc 1 375 11 discriminator 2 view .LVU319
 1229 008a 2024     		movs	r4, #32
 374:Src/main.c    **** 		disp[3] = blinkControl ? ' ' : lastTime.minutes % 10  + '0';
 1230              		.loc 1 374 26 view .LVU320
 1231 008c 804B     		ldr	r3, .L125+4
 373:Src/main.c    **** 		disp[2] = blinkControl ? ' ' : lastTime.minutes / 10  + '0';
 1232              		.loc 1 373 33 view .LVU321
 1233 008e 3031     		adds	r1, r1, #48
 374:Src/main.c    **** 		disp[3] = blinkControl ? ' ' : lastTime.minutes % 10  + '0';
 1234              		.loc 1 374 11 view .LVU322
 1235 0090 1B78     		ldrb	r3, [r3]
 374:Src/main.c    **** 		disp[3] = blinkControl ? ' ' : lastTime.minutes % 10  + '0';
 1236              		.loc 1 374 11 discriminator 4 view .LVU323
 1237 0092 2500     		movs	r5, r4
 373:Src/main.c    **** 		disp[2] = blinkControl ? ' ' : lastTime.minutes / 10  + '0';
 1238              		.loc 1 373 33 view .LVU324
 1239 0094 CFB2     		uxtb	r7, r1
 1240              	.LVL59:
 374:Src/main.c    **** 		disp[3] = blinkControl ? ' ' : lastTime.minutes % 10  + '0';
 1241              		.loc 1 374 3 is_stmt 1 view .LVU325
 374:Src/main.c    **** 		disp[3] = blinkControl ? ' ' : lastTime.minutes % 10  + '0';
ARM GAS  D:\Temp\ccpUgK8Y.s 			page 32


 1242              		.loc 1 374 11 is_stmt 0 view .LVU326
 1243 0096 002B     		cmp	r3, #0
 1244 0098 3AD1     		bne	.L75
 374:Src/main.c    **** 		disp[3] = blinkControl ? ' ' : lastTime.minutes % 10  + '0';
 1245              		.loc 1 374 42 discriminator 1 view .LVU327
 1246 009a 019B     		ldr	r3, [sp, #4]
 1247 009c 5C78     		ldrb	r4, [r3, #1]
 1248 009e DAE7     		b	.L110
 1249              	.LVL60:
 1250              	.L87:
 378:Src/main.c    **** 		disp[1] = 'L';
 1251              		.loc 1 378 3 is_stmt 1 view .LVU328
 379:Src/main.c    **** 		disp[2] = blinkControl ? ' ' : 'o' ;
 1252              		.loc 1 379 3 view .LVU329
 380:Src/main.c    **** 		disp[3] = blinkControl ? ' ' : isAlarmEnabled ? 'n' : 'F';
 1253              		.loc 1 380 3 view .LVU330
 380:Src/main.c    **** 		disp[3] = blinkControl ? ' ' : isAlarmEnabled ? 'n' : 'F';
 1254              		.loc 1 380 26 is_stmt 0 view .LVU331
 1255 00a0 7B4B     		ldr	r3, .L125+4
 380:Src/main.c    **** 		disp[3] = blinkControl ? ' ' : isAlarmEnabled ? 'n' : 'F';
 1256              		.loc 1 380 11 view .LVU332
 1257 00a2 1B78     		ldrb	r3, [r3]
 1258 00a4 002B     		cmp	r3, #0
 1259 00a6 00D0     		beq	.LCB996
 1260 00a8 CEE0     		b	.L95	@long jump
 1261              	.LCB996:
 1262              	.LVL61:
 381:Src/main.c    **** 	}
 1263              		.loc 1 381 3 is_stmt 1 view .LVU333
 381:Src/main.c    **** 	}
 1264              		.loc 1 381 49 is_stmt 0 discriminator 1 view .LVU334
 1265 00aa 7B4B     		ldr	r3, .L125+12
 381:Src/main.c    **** 	}
 1266              		.loc 1 381 11 discriminator 3 view .LVU335
 1267 00ac 6E24     		movs	r4, #110
 381:Src/main.c    **** 	}
 1268              		.loc 1 381 11 discriminator 1 view .LVU336
 1269 00ae 1B78     		ldrb	r3, [r3]
 1270 00b0 002B     		cmp	r3, #0
 1271 00b2 00D1     		bne	.L118
 381:Src/main.c    **** 	}
 1272              		.loc 1 381 11 discriminator 4 view .LVU337
 1273 00b4 4624     		movs	r4, #70
 1274              	.L118:
 380:Src/main.c    **** 		disp[3] = blinkControl ? ' ' : isAlarmEnabled ? 'n' : 'F';
 1275              		.loc 1 380 11 discriminator 4 view .LVU338
 1276 00b6 6F25     		movs	r5, #111
 1277 00b8 C8E0     		b	.L113
 1278              	.LVL62:
 1279              	.L86:
 384:Src/main.c    **** 		disp[1] = blinkControl ? ' ' : (alarmHour % 10 + '0');
 1280              		.loc 1 384 3 is_stmt 1 view .LVU339
 384:Src/main.c    **** 		disp[1] = blinkControl ? ' ' : (alarmHour % 10 + '0');
 1281              		.loc 1 384 11 is_stmt 0 discriminator 2 view .LVU340
 1282 00ba 2026     		movs	r6, #32
 384:Src/main.c    **** 		disp[1] = blinkControl ? ' ' : (alarmHour % 10 + '0');
 1283              		.loc 1 384 26 view .LVU341
ARM GAS  D:\Temp\ccpUgK8Y.s 			page 33


 1284 00bc 744B     		ldr	r3, .L125+4
 385:Src/main.c    **** 		disp[2] = alarmMin / 10  + '0';
 1285              		.loc 1 385 11 discriminator 2 view .LVU342
 1286 00be 3700     		movs	r7, r6
 384:Src/main.c    **** 		disp[1] = blinkControl ? ' ' : (alarmHour % 10 + '0');
 1287              		.loc 1 384 11 view .LVU343
 1288 00c0 1B78     		ldrb	r3, [r3]
 1289 00c2 002B     		cmp	r3, #0
 1290 00c4 0DD1     		bne	.L112
 384:Src/main.c    **** 		disp[1] = blinkControl ? ' ' : (alarmHour % 10 + '0');
 1291              		.loc 1 384 50 discriminator 1 view .LVU344
 1292 00c6 754B     		ldr	r3, .L125+16
 1293 00c8 0A21     		movs	r1, #10
 1294 00ca 1C78     		ldrb	r4, [r3]
 1295 00cc 2000     		movs	r0, r4
 1296 00ce FFF7FEFF 		bl	__aeabi_uidiv
 1297              	.LVL63:
 384:Src/main.c    **** 		disp[1] = blinkControl ? ' ' : (alarmHour % 10 + '0');
 1298              		.loc 1 384 11 discriminator 1 view .LVU345
 1299 00d2 3030     		adds	r0, r0, #48
 385:Src/main.c    **** 		disp[2] = alarmMin / 10  + '0';
 1300              		.loc 1 385 50 discriminator 1 view .LVU346
 1301 00d4 0A21     		movs	r1, #10
 384:Src/main.c    **** 		disp[1] = blinkControl ? ' ' : (alarmHour % 10 + '0');
 1302              		.loc 1 384 11 discriminator 1 view .LVU347
 1303 00d6 C6B2     		uxtb	r6, r0
 1304              	.LVL64:
 385:Src/main.c    **** 		disp[2] = alarmMin / 10  + '0';
 1305              		.loc 1 385 3 is_stmt 1 view .LVU348
 385:Src/main.c    **** 		disp[2] = alarmMin / 10  + '0';
 1306              		.loc 1 385 50 is_stmt 0 discriminator 1 view .LVU349
 1307 00d8 2000     		movs	r0, r4
 1308 00da FFF7FEFF 		bl	__aeabi_uidivmod
 1309              	.LVL65:
 385:Src/main.c    **** 		disp[2] = alarmMin / 10  + '0';
 1310              		.loc 1 385 11 discriminator 1 view .LVU350
 1311 00de 3031     		adds	r1, r1, #48
 1312 00e0 CFB2     		uxtb	r7, r1
 1313              	.LVL66:
 386:Src/main.c    **** 		disp[3] = alarmMin % 10  + '0';
 1314              		.loc 1 386 3 is_stmt 1 view .LVU351
 1315              	.L112:
 392:Src/main.c    **** 		disp[3] = blinkControl ? ' ' : alarmMin % 10  + '0';
 1316              		.loc 1 392 49 is_stmt 0 discriminator 1 view .LVU352
 1317 00e2 6F4B     		ldr	r3, .L125+20
 1318 00e4 1C78     		ldrb	r4, [r3]
 1319 00e6 B6E7     		b	.L110
 1320              	.LVL67:
 1321              	.L85:
 390:Src/main.c    **** 		disp[1] = alarmHour % 10 + '0';
 1322              		.loc 1 390 3 is_stmt 1 view .LVU353
 390:Src/main.c    **** 		disp[1] = alarmHour % 10 + '0';
 1323              		.loc 1 390 28 is_stmt 0 view .LVU354
 1324 00e8 6C4B     		ldr	r3, .L125+16
 1325 00ea 0A21     		movs	r1, #10
 1326 00ec 1C78     		ldrb	r4, [r3]
 1327 00ee 2000     		movs	r0, r4
ARM GAS  D:\Temp\ccpUgK8Y.s 			page 34


 1328 00f0 FFF7FEFF 		bl	__aeabi_uidiv
 1329              	.LVL68:
 1330 00f4 3030     		adds	r0, r0, #48
 391:Src/main.c    **** 		disp[2] = blinkControl ? ' ' : alarmMin / 10  + '0';
 1331              		.loc 1 391 28 view .LVU355
 1332 00f6 0A21     		movs	r1, #10
 390:Src/main.c    **** 		disp[1] = alarmHour % 10 + '0';
 1333              		.loc 1 390 28 view .LVU356
 1334 00f8 C6B2     		uxtb	r6, r0
 1335              	.LVL69:
 391:Src/main.c    **** 		disp[2] = blinkControl ? ' ' : alarmMin / 10  + '0';
 1336              		.loc 1 391 3 is_stmt 1 view .LVU357
 391:Src/main.c    **** 		disp[2] = blinkControl ? ' ' : alarmMin / 10  + '0';
 1337              		.loc 1 391 28 is_stmt 0 view .LVU358
 1338 00fa 2000     		movs	r0, r4
 1339 00fc FFF7FEFF 		bl	__aeabi_uidivmod
 1340              	.LVL70:
 1341              		.loc 1 393 11 discriminator 2 view .LVU359
 1342 0100 2024     		movs	r4, #32
 392:Src/main.c    **** 		disp[3] = blinkControl ? ' ' : alarmMin % 10  + '0';
 1343              		.loc 1 392 26 view .LVU360
 1344 0102 634B     		ldr	r3, .L125+4
 391:Src/main.c    **** 		disp[2] = blinkControl ? ' ' : alarmMin / 10  + '0';
 1345              		.loc 1 391 28 view .LVU361
 1346 0104 3031     		adds	r1, r1, #48
 392:Src/main.c    **** 		disp[3] = blinkControl ? ' ' : alarmMin % 10  + '0';
 1347              		.loc 1 392 11 view .LVU362
 1348 0106 1B78     		ldrb	r3, [r3]
 392:Src/main.c    **** 		disp[3] = blinkControl ? ' ' : alarmMin % 10  + '0';
 1349              		.loc 1 392 11 discriminator 4 view .LVU363
 1350 0108 2500     		movs	r5, r4
 391:Src/main.c    **** 		disp[2] = blinkControl ? ' ' : alarmMin / 10  + '0';
 1351              		.loc 1 391 28 view .LVU364
 1352 010a CFB2     		uxtb	r7, r1
 1353              	.LVL71:
 392:Src/main.c    **** 		disp[3] = blinkControl ? ' ' : alarmMin % 10  + '0';
 1354              		.loc 1 392 3 is_stmt 1 view .LVU365
 392:Src/main.c    **** 		disp[3] = blinkControl ? ' ' : alarmMin % 10  + '0';
 1355              		.loc 1 392 11 is_stmt 0 view .LVU366
 1356 010c 002B     		cmp	r3, #0
 1357 010e E8D0     		beq	.L112
 1358              	.LVL72:
 1359              	.L75:
 394:Src/main.c    **** 	}
 395:Src/main.c    **** 	else if(currentMode == MODE_SET_TEMP_SHOW){
 396:Src/main.c    **** 		disp[0] = 'T';
 397:Src/main.c    **** 		disp[1] = 'S';
 398:Src/main.c    **** 		disp[2] = blinkControl ? ' ' : tempertureShowTime / 10  + '0';
 399:Src/main.c    **** 		disp[3] = blinkControl ? ' ' : tempertureShowTime % 10  + '0';
 400:Src/main.c    **** 	}
 401:Src/main.c    **** 	else if(currentMode == MODE_SET_TEMP_HIDE){
 402:Src/main.c    **** 		disp[0] = 'T';
 403:Src/main.c    **** 		disp[1] = 'H';
 404:Src/main.c    **** 		disp[2] = blinkControl ? ' ' : tempertureHideTime / 10  + '0';
 405:Src/main.c    **** 		disp[3] = blinkControl ? ' ' : tempertureHideTime % 10  + '0';
 406:Src/main.c    **** 	}
 407:Src/main.c    **** 	else if (currentMode == MODE_SET_BRIGHTNESS) {
ARM GAS  D:\Temp\ccpUgK8Y.s 			page 35


 408:Src/main.c    **** 		disp[0] = 'b';
 409:Src/main.c    **** 		disp[1] = 'r';
 410:Src/main.c    **** 		if (savedBrightness) {
 411:Src/main.c    **** 			disp[2] = blinkControl ? ' ' : '0';
 412:Src/main.c    **** 			disp[3] = blinkControl ? ' ' : savedBrightness + '0';
 413:Src/main.c    **** 		}
 414:Src/main.c    **** 		else {
 415:Src/main.c    **** 			disp[2] = 'A';
 416:Src/main.c    **** 			disp[3] = 'U';
 417:Src/main.c    **** 		}
 418:Src/main.c    **** 	}
 419:Src/main.c    **** 	else if (currentMode == MODE_SET_BRIGHTNESS_STRONG) {
 420:Src/main.c    **** 		disp[0] = 'b';
 421:Src/main.c    **** 		disp[1] = '1';
 422:Src/main.c    **** 		disp[2] = blinkControl ? ' ' : '0';
 423:Src/main.c    **** 		disp[3] = blinkControl ? ' ' : strongBrightness + '0';
 424:Src/main.c    **** 	}
 425:Src/main.c    **** 	else if (currentMode == MODE_SET_BRIGHTNESS_WEAK) {
 426:Src/main.c    **** 		disp[0] = 'b';
 427:Src/main.c    **** 		disp[1] = '2';
 428:Src/main.c    **** 		disp[2] = blinkControl ? ' ' : '0';
 429:Src/main.c    **** 		disp[3] = blinkControl ? ' ' : weakBrightness + '0';
 430:Src/main.c    **** 	}
 431:Src/main.c    **** 	else if(currentMode == MODE_SET_ROT_ENABLE){
 432:Src/main.c    **** 		disp[0] = 'r';
 433:Src/main.c    **** 		disp[1] = 'o';
 434:Src/main.c    **** 		disp[2] = blinkControl ? ' ' : 'o' ;
 435:Src/main.c    **** 		disp[3] = blinkControl ? ' ' : isRingOnTimeEnabled ? 'n' : 'F';
 436:Src/main.c    **** 	}
 437:Src/main.c    **** 	else if(currentMode == MODE_SET_ROT_START){
 438:Src/main.c    **** 		disp[0] = 'r';
 439:Src/main.c    **** 		disp[1] = 'S';
 440:Src/main.c    **** 		disp[2] = blinkControl ? ' ' : ringOnTimeStart / 10  + '0';
 441:Src/main.c    **** 		disp[3] = blinkControl ? ' ' : ringOnTimeStart % 10  + '0';
 442:Src/main.c    **** 	}
 443:Src/main.c    **** 	else if(currentMode == MODE_SET_ROT_STOP){
 444:Src/main.c    **** 		disp[0] = 'r';
 445:Src/main.c    **** 		disp[1] = 'e';
 446:Src/main.c    **** 		disp[2] = blinkControl ? ' ' : ringOnTimeStop / 10  + '0';
 447:Src/main.c    **** 		disp[3] = blinkControl ? ' ' : ringOnTimeStop % 10  + '0';
 448:Src/main.c    **** 	}
 449:Src/main.c    **** 
 450:Src/main.c    **** 	TM1637SetChar(0, disp[0], false);
 1360              		.loc 1 450 2 is_stmt 1 view .LVU367
 451:Src/main.c    **** 	TM1637SetChar(1, disp[1], true);
 452:Src/main.c    **** 	TM1637SetChar(2, disp[2], false);
 453:Src/main.c    **** 	TM1637SetChar(3, disp[3], false);
 454:Src/main.c    **** }
 1361              		.loc 1 454 1 is_stmt 0 view .LVU368
 1362              		@ sp needed
 450:Src/main.c    **** 	TM1637SetChar(1, disp[1], true);
 1363              		.loc 1 450 2 view .LVU369
 1364 0110 0022     		movs	r2, #0
 1365 0112 3100     		movs	r1, r6
 1366 0114 1000     		movs	r0, r2
 1367 0116 FFF7FEFF 		bl	TM1637SetChar
 1368              	.LVL73:
ARM GAS  D:\Temp\ccpUgK8Y.s 			page 36


 451:Src/main.c    **** 	TM1637SetChar(1, disp[1], true);
 1369              		.loc 1 451 2 is_stmt 1 view .LVU370
 1370 011a 0122     		movs	r2, #1
 1371 011c 3900     		movs	r1, r7
 1372 011e 1000     		movs	r0, r2
 1373 0120 FFF7FEFF 		bl	TM1637SetChar
 1374              	.LVL74:
 452:Src/main.c    **** 	TM1637SetChar(3, disp[3], false);
 1375              		.loc 1 452 2 view .LVU371
 1376 0124 2900     		movs	r1, r5
 1377 0126 0022     		movs	r2, #0
 1378 0128 0220     		movs	r0, #2
 1379 012a FFF7FEFF 		bl	TM1637SetChar
 1380              	.LVL75:
 453:Src/main.c    **** }
 1381              		.loc 1 453 2 view .LVU372
 1382 012e 0022     		movs	r2, #0
 1383 0130 2100     		movs	r1, r4
 1384 0132 0320     		movs	r0, #3
 1385 0134 FFF7FEFF 		bl	TM1637SetChar
 1386              	.LVL76:
 1387              		.loc 1 454 1 is_stmt 0 view .LVU373
 1388 0138 F7BD     		pop	{r0, r1, r2, r4, r5, r6, r7, pc}
 1389              	.LVL77:
 1390              	.L84:
 396:Src/main.c    **** 		disp[1] = 'S';
 1391              		.loc 1 396 3 is_stmt 1 view .LVU374
 397:Src/main.c    **** 		disp[2] = blinkControl ? ' ' : tempertureShowTime / 10  + '0';
 1392              		.loc 1 397 3 view .LVU375
 398:Src/main.c    **** 		disp[3] = blinkControl ? ' ' : tempertureShowTime % 10  + '0';
 1393              		.loc 1 398 3 view .LVU376
 398:Src/main.c    **** 		disp[3] = blinkControl ? ' ' : tempertureShowTime % 10  + '0';
 1394              		.loc 1 398 26 is_stmt 0 view .LVU377
 1395 013a 554B     		ldr	r3, .L125+4
 398:Src/main.c    **** 		disp[3] = blinkControl ? ' ' : tempertureShowTime % 10  + '0';
 1396              		.loc 1 398 11 view .LVU378
 1397 013c 1B78     		ldrb	r3, [r3]
 1398 013e 002B     		cmp	r3, #0
 1399 0140 00D0     		beq	.LCB1131
 1400 0142 86E0     		b	.L99	@long jump
 1401              	.LCB1131:
 398:Src/main.c    **** 		disp[3] = blinkControl ? ' ' : tempertureShowTime % 10  + '0';
 1402              		.loc 1 398 59 discriminator 1 view .LVU379
 1403 0144 574B     		ldr	r3, .L125+24
 1404 0146 0A21     		movs	r1, #10
 1405 0148 1C78     		ldrb	r4, [r3]
 1406 014a 2000     		movs	r0, r4
 1407 014c FFF7FEFF 		bl	__aeabi_uidiv
 1408              	.LVL78:
 398:Src/main.c    **** 		disp[3] = blinkControl ? ' ' : tempertureShowTime % 10  + '0';
 1409              		.loc 1 398 11 discriminator 1 view .LVU380
 1410 0150 3030     		adds	r0, r0, #48
 399:Src/main.c    **** 	}
 1411              		.loc 1 399 59 discriminator 1 view .LVU381
 1412 0152 0A21     		movs	r1, #10
 398:Src/main.c    **** 		disp[3] = blinkControl ? ' ' : tempertureShowTime % 10  + '0';
 1413              		.loc 1 398 11 discriminator 1 view .LVU382
ARM GAS  D:\Temp\ccpUgK8Y.s 			page 37


 1414 0154 C5B2     		uxtb	r5, r0
 1415              	.LVL79:
 399:Src/main.c    **** 	}
 1416              		.loc 1 399 3 is_stmt 1 view .LVU383
 399:Src/main.c    **** 	}
 1417              		.loc 1 399 59 is_stmt 0 discriminator 1 view .LVU384
 1418 0156 2000     		movs	r0, r4
 1419 0158 FFF7FEFF 		bl	__aeabi_uidivmod
 1420              	.LVL80:
 399:Src/main.c    **** 	}
 1421              		.loc 1 399 11 discriminator 1 view .LVU385
 1422 015c 3031     		adds	r1, r1, #48
 1423 015e CCB2     		uxtb	r4, r1
 1424              	.LVL81:
 1425              	.L114:
 397:Src/main.c    **** 		disp[2] = blinkControl ? ' ' : tempertureShowTime / 10  + '0';
 1426              		.loc 1 397 11 view .LVU386
 1427 0160 5327     		movs	r7, #83
 1428              	.LVL82:
 1429              	.L115:
 396:Src/main.c    **** 		disp[1] = 'S';
 1430              		.loc 1 396 11 view .LVU387
 1431 0162 5426     		movs	r6, #84
 1432 0164 D4E7     		b	.L75
 1433              	.LVL83:
 1434              	.L83:
 402:Src/main.c    **** 		disp[1] = 'H';
 1435              		.loc 1 402 3 is_stmt 1 view .LVU388
 403:Src/main.c    **** 		disp[2] = blinkControl ? ' ' : tempertureHideTime / 10  + '0';
 1436              		.loc 1 403 3 view .LVU389
 404:Src/main.c    **** 		disp[3] = blinkControl ? ' ' : tempertureHideTime % 10  + '0';
 1437              		.loc 1 404 3 view .LVU390
 404:Src/main.c    **** 		disp[3] = blinkControl ? ' ' : tempertureHideTime % 10  + '0';
 1438              		.loc 1 404 26 is_stmt 0 view .LVU391
 1439 0166 4A4B     		ldr	r3, .L125+4
 404:Src/main.c    **** 		disp[3] = blinkControl ? ' ' : tempertureHideTime % 10  + '0';
 1440              		.loc 1 404 11 view .LVU392
 1441 0168 1B78     		ldrb	r3, [r3]
 1442 016a 002B     		cmp	r3, #0
 1443 016c 74D1     		bne	.L100
 404:Src/main.c    **** 		disp[3] = blinkControl ? ' ' : tempertureHideTime % 10  + '0';
 1444              		.loc 1 404 59 discriminator 1 view .LVU393
 1445 016e 4E4B     		ldr	r3, .L125+28
 1446 0170 0A21     		movs	r1, #10
 1447 0172 1C78     		ldrb	r4, [r3]
 1448 0174 2000     		movs	r0, r4
 1449 0176 FFF7FEFF 		bl	__aeabi_uidiv
 1450              	.LVL84:
 404:Src/main.c    **** 		disp[3] = blinkControl ? ' ' : tempertureHideTime % 10  + '0';
 1451              		.loc 1 404 11 discriminator 1 view .LVU394
 1452 017a 3030     		adds	r0, r0, #48
 405:Src/main.c    **** 	}
 1453              		.loc 1 405 59 discriminator 1 view .LVU395
 1454 017c 0A21     		movs	r1, #10
 404:Src/main.c    **** 		disp[3] = blinkControl ? ' ' : tempertureHideTime % 10  + '0';
 1455              		.loc 1 404 11 discriminator 1 view .LVU396
 1456 017e C5B2     		uxtb	r5, r0
ARM GAS  D:\Temp\ccpUgK8Y.s 			page 38


 1457              	.LVL85:
 405:Src/main.c    **** 	}
 1458              		.loc 1 405 3 is_stmt 1 view .LVU397
 405:Src/main.c    **** 	}
 1459              		.loc 1 405 59 is_stmt 0 discriminator 1 view .LVU398
 1460 0180 2000     		movs	r0, r4
 1461 0182 FFF7FEFF 		bl	__aeabi_uidivmod
 1462              	.LVL86:
 405:Src/main.c    **** 	}
 1463              		.loc 1 405 11 discriminator 1 view .LVU399
 1464 0186 3031     		adds	r1, r1, #48
 1465 0188 CCB2     		uxtb	r4, r1
 1466              	.LVL87:
 1467              	.L119:
 403:Src/main.c    **** 		disp[2] = blinkControl ? ' ' : tempertureHideTime / 10  + '0';
 1468              		.loc 1 403 11 view .LVU400
 1469 018a 4827     		movs	r7, #72
 1470 018c E9E7     		b	.L115
 1471              	.LVL88:
 1472              	.L82:
 408:Src/main.c    **** 		disp[1] = 'r';
 1473              		.loc 1 408 3 is_stmt 1 view .LVU401
 409:Src/main.c    **** 		if (savedBrightness) {
 1474              		.loc 1 409 3 view .LVU402
 410:Src/main.c    **** 			disp[2] = blinkControl ? ' ' : '0';
 1475              		.loc 1 410 3 view .LVU403
 410:Src/main.c    **** 			disp[2] = blinkControl ? ' ' : '0';
 1476              		.loc 1 410 7 is_stmt 0 view .LVU404
 1477 018e 474B     		ldr	r3, .L125+32
 1478 0190 1C78     		ldrb	r4, [r3]
 410:Src/main.c    **** 			disp[2] = blinkControl ? ' ' : '0';
 1479              		.loc 1 410 6 view .LVU405
 1480 0192 002C     		cmp	r4, #0
 1481 0194 63D0     		beq	.L101
 411:Src/main.c    **** 			disp[3] = blinkControl ? ' ' : savedBrightness + '0';
 1482              		.loc 1 411 4 is_stmt 1 view .LVU406
 411:Src/main.c    **** 			disp[3] = blinkControl ? ' ' : savedBrightness + '0';
 1483              		.loc 1 411 27 is_stmt 0 view .LVU407
 1484 0196 3E4B     		ldr	r3, .L125+4
 411:Src/main.c    **** 			disp[3] = blinkControl ? ' ' : savedBrightness + '0';
 1485              		.loc 1 411 12 view .LVU408
 1486 0198 1B78     		ldrb	r3, [r3]
 1487 019a 002B     		cmp	r3, #0
 1488 019c 62D1     		bne	.L102
 1489              	.LVL89:
 412:Src/main.c    **** 		}
 1490              		.loc 1 412 4 is_stmt 1 view .LVU409
 411:Src/main.c    **** 			disp[3] = blinkControl ? ' ' : savedBrightness + '0';
 1491              		.loc 1 411 12 is_stmt 0 discriminator 4 view .LVU410
 1492 019e 3025     		movs	r5, #48
 412:Src/main.c    **** 		}
 1493              		.loc 1 412 12 discriminator 1 view .LVU411
 1494 01a0 3034     		adds	r4, r4, #48
 1495 01a2 E4B2     		uxtb	r4, r4
 1496              	.LVL90:
 1497              	.L116:
 409:Src/main.c    **** 		if (savedBrightness) {
ARM GAS  D:\Temp\ccpUgK8Y.s 			page 39


 1498              		.loc 1 409 11 view .LVU412
 1499 01a4 7227     		movs	r7, #114
 1500              	.LVL91:
 1501              	.L117:
 408:Src/main.c    **** 		disp[1] = 'r';
 1502              		.loc 1 408 11 view .LVU413
 1503 01a6 6226     		movs	r6, #98
 1504 01a8 B2E7     		b	.L75
 1505              	.LVL92:
 1506              	.L81:
 420:Src/main.c    **** 		disp[1] = '1';
 1507              		.loc 1 420 3 is_stmt 1 view .LVU414
 421:Src/main.c    **** 		disp[2] = blinkControl ? ' ' : '0';
 1508              		.loc 1 421 3 view .LVU415
 422:Src/main.c    **** 		disp[3] = blinkControl ? ' ' : strongBrightness + '0';
 1509              		.loc 1 422 3 view .LVU416
 422:Src/main.c    **** 		disp[3] = blinkControl ? ' ' : strongBrightness + '0';
 1510              		.loc 1 422 26 is_stmt 0 view .LVU417
 1511 01aa 394B     		ldr	r3, .L125+4
 422:Src/main.c    **** 		disp[3] = blinkControl ? ' ' : strongBrightness + '0';
 1512              		.loc 1 422 11 view .LVU418
 1513 01ac 1B78     		ldrb	r3, [r3]
 1514 01ae 002B     		cmp	r3, #0
 1515 01b0 5BD1     		bne	.L103
 1516              	.LVL93:
 423:Src/main.c    **** 	}
 1517              		.loc 1 423 3 is_stmt 1 view .LVU419
 422:Src/main.c    **** 		disp[3] = blinkControl ? ' ' : strongBrightness + '0';
 1518              		.loc 1 422 11 is_stmt 0 discriminator 4 view .LVU420
 1519 01b2 3025     		movs	r5, #48
 423:Src/main.c    **** 	}
 1520              		.loc 1 423 51 discriminator 1 view .LVU421
 1521 01b4 3E4B     		ldr	r3, .L125+36
 423:Src/main.c    **** 	}
 1522              		.loc 1 423 11 discriminator 1 view .LVU422
 1523 01b6 1C78     		ldrb	r4, [r3]
 1524 01b8 3034     		adds	r4, r4, #48
 1525 01ba E4B2     		uxtb	r4, r4
 1526              	.LVL94:
 1527              	.L120:
 421:Src/main.c    **** 		disp[2] = blinkControl ? ' ' : '0';
 1528              		.loc 1 421 11 view .LVU423
 1529 01bc 3127     		movs	r7, #49
 1530 01be F2E7     		b	.L117
 1531              	.LVL95:
 1532              	.L80:
 426:Src/main.c    **** 		disp[1] = '2';
 1533              		.loc 1 426 3 is_stmt 1 view .LVU424
 427:Src/main.c    **** 		disp[2] = blinkControl ? ' ' : '0';
 1534              		.loc 1 427 3 view .LVU425
 428:Src/main.c    **** 		disp[3] = blinkControl ? ' ' : weakBrightness + '0';
 1535              		.loc 1 428 3 view .LVU426
 428:Src/main.c    **** 		disp[3] = blinkControl ? ' ' : weakBrightness + '0';
 1536              		.loc 1 428 26 is_stmt 0 view .LVU427
 1537 01c0 334B     		ldr	r3, .L125+4
 428:Src/main.c    **** 		disp[3] = blinkControl ? ' ' : weakBrightness + '0';
 1538              		.loc 1 428 11 view .LVU428
ARM GAS  D:\Temp\ccpUgK8Y.s 			page 40


 1539 01c2 1B78     		ldrb	r3, [r3]
 1540 01c4 002B     		cmp	r3, #0
 1541 01c6 53D1     		bne	.L104
 1542              	.LVL96:
 429:Src/main.c    **** 	}
 1543              		.loc 1 429 3 is_stmt 1 view .LVU429
 428:Src/main.c    **** 		disp[3] = blinkControl ? ' ' : weakBrightness + '0';
 1544              		.loc 1 428 11 is_stmt 0 discriminator 4 view .LVU430
 1545 01c8 3025     		movs	r5, #48
 429:Src/main.c    **** 	}
 1546              		.loc 1 429 49 discriminator 1 view .LVU431
 1547 01ca 3A4B     		ldr	r3, .L125+40
 429:Src/main.c    **** 	}
 1548              		.loc 1 429 11 discriminator 1 view .LVU432
 1549 01cc 1C78     		ldrb	r4, [r3]
 1550 01ce 3034     		adds	r4, r4, #48
 1551 01d0 E4B2     		uxtb	r4, r4
 1552              	.LVL97:
 1553              	.L121:
 427:Src/main.c    **** 		disp[2] = blinkControl ? ' ' : '0';
 1554              		.loc 1 427 11 view .LVU433
 1555 01d2 3227     		movs	r7, #50
 1556 01d4 E7E7     		b	.L117
 1557              	.LVL98:
 1558              	.L79:
 432:Src/main.c    **** 		disp[1] = 'o';
 1559              		.loc 1 432 3 is_stmt 1 view .LVU434
 433:Src/main.c    **** 		disp[2] = blinkControl ? ' ' : 'o' ;
 1560              		.loc 1 433 3 view .LVU435
 434:Src/main.c    **** 		disp[3] = blinkControl ? ' ' : isRingOnTimeEnabled ? 'n' : 'F';
 1561              		.loc 1 434 3 view .LVU436
 434:Src/main.c    **** 		disp[3] = blinkControl ? ' ' : isRingOnTimeEnabled ? 'n' : 'F';
 1562              		.loc 1 434 26 is_stmt 0 view .LVU437
 1563 01d6 2E4B     		ldr	r3, .L125+4
 434:Src/main.c    **** 		disp[3] = blinkControl ? ' ' : isRingOnTimeEnabled ? 'n' : 'F';
 1564              		.loc 1 434 11 view .LVU438
 1565 01d8 1B78     		ldrb	r3, [r3]
 1566 01da 002B     		cmp	r3, #0
 1567 01dc 4BD1     		bne	.L105
 1568              	.LVL99:
 435:Src/main.c    **** 	}
 1569              		.loc 1 435 3 is_stmt 1 view .LVU439
 435:Src/main.c    **** 	}
 1570              		.loc 1 435 54 is_stmt 0 discriminator 1 view .LVU440
 1571 01de 364B     		ldr	r3, .L125+44
 435:Src/main.c    **** 	}
 1572              		.loc 1 435 11 discriminator 3 view .LVU441
 1573 01e0 6E24     		movs	r4, #110
 435:Src/main.c    **** 	}
 1574              		.loc 1 435 11 discriminator 1 view .LVU442
 1575 01e2 1B78     		ldrb	r3, [r3]
 1576 01e4 002B     		cmp	r3, #0
 1577 01e6 00D1     		bne	.L122
 435:Src/main.c    **** 	}
 1578              		.loc 1 435 11 discriminator 4 view .LVU443
 1579 01e8 4624     		movs	r4, #70
 1580              	.L122:
ARM GAS  D:\Temp\ccpUgK8Y.s 			page 41


 434:Src/main.c    **** 		disp[3] = blinkControl ? ' ' : isRingOnTimeEnabled ? 'n' : 'F';
 1581              		.loc 1 434 11 discriminator 4 view .LVU444
 1582 01ea 6F25     		movs	r5, #111
 1583 01ec 45E0     		b	.L123
 1584              	.LVL100:
 1585              	.L78:
 438:Src/main.c    **** 		disp[1] = 'S';
 1586              		.loc 1 438 3 is_stmt 1 view .LVU445
 439:Src/main.c    **** 		disp[2] = blinkControl ? ' ' : ringOnTimeStart / 10  + '0';
 1587              		.loc 1 439 3 view .LVU446
 440:Src/main.c    **** 		disp[3] = blinkControl ? ' ' : ringOnTimeStart % 10  + '0';
 1588              		.loc 1 440 3 view .LVU447
 440:Src/main.c    **** 		disp[3] = blinkControl ? ' ' : ringOnTimeStart % 10  + '0';
 1589              		.loc 1 440 26 is_stmt 0 view .LVU448
 1590 01ee 284B     		ldr	r3, .L125+4
 440:Src/main.c    **** 		disp[3] = blinkControl ? ' ' : ringOnTimeStart % 10  + '0';
 1591              		.loc 1 440 11 view .LVU449
 1592 01f0 1B78     		ldrb	r3, [r3]
 1593 01f2 002B     		cmp	r3, #0
 1594 01f4 44D1     		bne	.L107
 440:Src/main.c    **** 		disp[3] = blinkControl ? ' ' : ringOnTimeStart % 10  + '0';
 1595              		.loc 1 440 56 discriminator 1 view .LVU450
 1596 01f6 314B     		ldr	r3, .L125+48
 1597 01f8 0A21     		movs	r1, #10
 1598 01fa 1C78     		ldrb	r4, [r3]
 1599 01fc 2000     		movs	r0, r4
 1600 01fe FFF7FEFF 		bl	__aeabi_uidiv
 1601              	.LVL101:
 440:Src/main.c    **** 		disp[3] = blinkControl ? ' ' : ringOnTimeStart % 10  + '0';
 1602              		.loc 1 440 11 discriminator 1 view .LVU451
 1603 0202 3030     		adds	r0, r0, #48
 441:Src/main.c    **** 	}
 1604              		.loc 1 441 56 discriminator 1 view .LVU452
 1605 0204 0A21     		movs	r1, #10
 440:Src/main.c    **** 		disp[3] = blinkControl ? ' ' : ringOnTimeStart % 10  + '0';
 1606              		.loc 1 440 11 discriminator 1 view .LVU453
 1607 0206 C5B2     		uxtb	r5, r0
 1608              	.LVL102:
 441:Src/main.c    **** 	}
 1609              		.loc 1 441 3 is_stmt 1 view .LVU454
 441:Src/main.c    **** 	}
 1610              		.loc 1 441 56 is_stmt 0 discriminator 1 view .LVU455
 1611 0208 2000     		movs	r0, r4
 1612 020a FFF7FEFF 		bl	__aeabi_uidivmod
 1613              	.LVL103:
 441:Src/main.c    **** 	}
 1614              		.loc 1 441 11 discriminator 1 view .LVU456
 1615 020e 3031     		adds	r1, r1, #48
 1616 0210 CCB2     		uxtb	r4, r1
 1617              	.LVL104:
 1618              	.L124:
 439:Src/main.c    **** 		disp[2] = blinkControl ? ' ' : ringOnTimeStart / 10  + '0';
 1619              		.loc 1 439 11 view .LVU457
 1620 0212 5327     		movs	r7, #83
 1621 0214 32E0     		b	.L109
 1622              	.LVL105:
 1623              	.L76:
ARM GAS  D:\Temp\ccpUgK8Y.s 			page 42


 444:Src/main.c    **** 		disp[1] = 'e';
 1624              		.loc 1 444 3 is_stmt 1 view .LVU458
 445:Src/main.c    **** 		disp[2] = blinkControl ? ' ' : ringOnTimeStop / 10  + '0';
 1625              		.loc 1 445 3 view .LVU459
 446:Src/main.c    **** 		disp[3] = blinkControl ? ' ' : ringOnTimeStop % 10  + '0';
 1626              		.loc 1 446 3 view .LVU460
 446:Src/main.c    **** 		disp[3] = blinkControl ? ' ' : ringOnTimeStop % 10  + '0';
 1627              		.loc 1 446 26 is_stmt 0 view .LVU461
 1628 0216 1E4B     		ldr	r3, .L125+4
 446:Src/main.c    **** 		disp[3] = blinkControl ? ' ' : ringOnTimeStop % 10  + '0';
 1629              		.loc 1 446 11 view .LVU462
 1630 0218 1B78     		ldrb	r3, [r3]
 1631 021a 002B     		cmp	r3, #0
 1632 021c 33D1     		bne	.L108
 446:Src/main.c    **** 		disp[3] = blinkControl ? ' ' : ringOnTimeStop % 10  + '0';
 1633              		.loc 1 446 55 discriminator 1 view .LVU463
 1634 021e 284B     		ldr	r3, .L125+52
 1635 0220 0A21     		movs	r1, #10
 1636 0222 1C78     		ldrb	r4, [r3]
 1637 0224 2000     		movs	r0, r4
 1638 0226 FFF7FEFF 		bl	__aeabi_uidiv
 1639              	.LVL106:
 446:Src/main.c    **** 		disp[3] = blinkControl ? ' ' : ringOnTimeStop % 10  + '0';
 1640              		.loc 1 446 11 discriminator 1 view .LVU464
 1641 022a 3030     		adds	r0, r0, #48
 447:Src/main.c    **** 	}
 1642              		.loc 1 447 55 discriminator 1 view .LVU465
 1643 022c 0A21     		movs	r1, #10
 446:Src/main.c    **** 		disp[3] = blinkControl ? ' ' : ringOnTimeStop % 10  + '0';
 1644              		.loc 1 446 11 discriminator 1 view .LVU466
 1645 022e C5B2     		uxtb	r5, r0
 1646              	.LVL107:
 447:Src/main.c    **** 	}
 1647              		.loc 1 447 3 is_stmt 1 view .LVU467
 447:Src/main.c    **** 	}
 1648              		.loc 1 447 55 is_stmt 0 discriminator 1 view .LVU468
 1649 0230 2000     		movs	r0, r4
 1650 0232 FFF7FEFF 		bl	__aeabi_uidivmod
 1651              	.LVL108:
 447:Src/main.c    **** 	}
 1652              		.loc 1 447 11 discriminator 1 view .LVU469
 1653 0236 3031     		adds	r1, r1, #48
 1654 0238 CCB2     		uxtb	r4, r1
 1655              	.LVL109:
 1656              	.L111:
 445:Src/main.c    **** 		disp[2] = blinkControl ? ' ' : ringOnTimeStop / 10  + '0';
 1657              		.loc 1 445 11 view .LVU470
 1658 023a 6527     		movs	r7, #101
 1659 023c 1EE0     		b	.L109
 1660              	.LVL110:
 1661              	.L92:
 365:Src/main.c    **** 		disp[0] = blinkControl ? ' ' : (lastTime.hours / 10 + '0');
 1662              		.loc 1 365 17 view .LVU471
 1663 023e 0024     		movs	r4, #0
 1664 0240 2500     		movs	r5, r4
 1665 0242 2700     		movs	r7, r4
 1666 0244 2600     		movs	r6, r4
ARM GAS  D:\Temp\ccpUgK8Y.s 			page 43


 1667 0246 63E7     		b	.L75
 1668              	.LVL111:
 1669              	.L95:
 381:Src/main.c    **** 	}
 1670              		.loc 1 381 11 discriminator 2 view .LVU472
 1671 0248 2024     		movs	r4, #32
 380:Src/main.c    **** 		disp[3] = blinkControl ? ' ' : isAlarmEnabled ? 'n' : 'F';
 1672              		.loc 1 380 11 discriminator 4 view .LVU473
 1673 024a 2500     		movs	r5, r4
 1674              	.LVL112:
 1675              	.L113:
 379:Src/main.c    **** 		disp[2] = blinkControl ? ' ' : 'o' ;
 1676              		.loc 1 379 11 view .LVU474
 1677 024c 4C27     		movs	r7, #76
 378:Src/main.c    **** 		disp[1] = 'L';
 1678              		.loc 1 378 11 view .LVU475
 1679 024e 4126     		movs	r6, #65
 1680 0250 5EE7     		b	.L75
 1681              	.LVL113:
 1682              	.L99:
 399:Src/main.c    **** 	}
 1683              		.loc 1 399 11 discriminator 2 view .LVU476
 1684 0252 2024     		movs	r4, #32
 398:Src/main.c    **** 		disp[3] = blinkControl ? ' ' : tempertureShowTime % 10  + '0';
 1685              		.loc 1 398 11 discriminator 4 view .LVU477
 1686 0254 2500     		movs	r5, r4
 1687 0256 83E7     		b	.L114
 1688              	.LVL114:
 1689              	.L100:
 405:Src/main.c    **** 	}
 1690              		.loc 1 405 11 discriminator 2 view .LVU478
 1691 0258 2024     		movs	r4, #32
 404:Src/main.c    **** 		disp[3] = blinkControl ? ' ' : tempertureHideTime % 10  + '0';
 1692              		.loc 1 404 11 discriminator 4 view .LVU479
 1693 025a 2500     		movs	r5, r4
 1694 025c 95E7     		b	.L119
 1695              	.LVL115:
 1696              	.L101:
 416:Src/main.c    **** 		}
 1697              		.loc 1 416 12 view .LVU480
 1698 025e 5524     		movs	r4, #85
 415:Src/main.c    **** 			disp[3] = 'U';
 1699              		.loc 1 415 12 view .LVU481
 1700 0260 4125     		movs	r5, #65
 1701 0262 9FE7     		b	.L116
 1702              	.L102:
 412:Src/main.c    **** 		}
 1703              		.loc 1 412 12 discriminator 2 view .LVU482
 1704 0264 2024     		movs	r4, #32
 411:Src/main.c    **** 			disp[3] = blinkControl ? ' ' : savedBrightness + '0';
 1705              		.loc 1 411 12 discriminator 4 view .LVU483
 1706 0266 2500     		movs	r5, r4
 1707 0268 9CE7     		b	.L116
 1708              	.LVL116:
 1709              	.L103:
 423:Src/main.c    **** 	}
 1710              		.loc 1 423 11 discriminator 2 view .LVU484
ARM GAS  D:\Temp\ccpUgK8Y.s 			page 44


 1711 026a 2024     		movs	r4, #32
 422:Src/main.c    **** 		disp[3] = blinkControl ? ' ' : strongBrightness + '0';
 1712              		.loc 1 422 11 discriminator 4 view .LVU485
 1713 026c 2500     		movs	r5, r4
 1714 026e A5E7     		b	.L120
 1715              	.LVL117:
 1716              	.L104:
 429:Src/main.c    **** 	}
 1717              		.loc 1 429 11 discriminator 2 view .LVU486
 1718 0270 2024     		movs	r4, #32
 428:Src/main.c    **** 		disp[3] = blinkControl ? ' ' : weakBrightness + '0';
 1719              		.loc 1 428 11 discriminator 4 view .LVU487
 1720 0272 2500     		movs	r5, r4
 1721 0274 ADE7     		b	.L121
 1722              	.LVL118:
 1723              	.L105:
 435:Src/main.c    **** 	}
 1724              		.loc 1 435 11 discriminator 2 view .LVU488
 1725 0276 2024     		movs	r4, #32
 434:Src/main.c    **** 		disp[3] = blinkControl ? ' ' : isRingOnTimeEnabled ? 'n' : 'F';
 1726              		.loc 1 434 11 discriminator 4 view .LVU489
 1727 0278 2500     		movs	r5, r4
 1728              	.LVL119:
 1729              	.L123:
 433:Src/main.c    **** 		disp[2] = blinkControl ? ' ' : 'o' ;
 1730              		.loc 1 433 11 view .LVU490
 1731 027a 6F27     		movs	r7, #111
 1732              	.LVL120:
 1733              	.L109:
 444:Src/main.c    **** 		disp[1] = 'e';
 1734              		.loc 1 444 11 view .LVU491
 1735 027c 7226     		movs	r6, #114
 1736 027e 47E7     		b	.L75
 1737              	.LVL121:
 1738              	.L107:
 441:Src/main.c    **** 	}
 1739              		.loc 1 441 11 discriminator 2 view .LVU492
 1740 0280 2024     		movs	r4, #32
 440:Src/main.c    **** 		disp[3] = blinkControl ? ' ' : ringOnTimeStart % 10  + '0';
 1741              		.loc 1 440 11 discriminator 4 view .LVU493
 1742 0282 2500     		movs	r5, r4
 1743 0284 C5E7     		b	.L124
 1744              	.LVL122:
 1745              	.L108:
 447:Src/main.c    **** 	}
 1746              		.loc 1 447 11 discriminator 2 view .LVU494
 1747 0286 2024     		movs	r4, #32
 446:Src/main.c    **** 		disp[3] = blinkControl ? ' ' : ringOnTimeStop % 10  + '0';
 1748              		.loc 1 446 11 discriminator 4 view .LVU495
 1749 0288 2500     		movs	r5, r4
 1750 028a D6E7     		b	.L111
 1751              	.L126:
 1752              		.align	2
 1753              	.L125:
 1754 028c 00000000 		.word	currentMode
 1755 0290 00000000 		.word	blinkControl
 1756 0294 00000000 		.word	lastTime
ARM GAS  D:\Temp\ccpUgK8Y.s 			page 45


 1757 0298 00000000 		.word	isAlarmEnabled
 1758 029c 00000000 		.word	alarmHour
 1759 02a0 00000000 		.word	alarmMin
 1760 02a4 00000000 		.word	tempertureShowTime
 1761 02a8 00000000 		.word	tempertureHideTime
 1762 02ac 00000000 		.word	savedBrightness
 1763 02b0 00000000 		.word	strongBrightness
 1764 02b4 00000000 		.word	weakBrightness
 1765 02b8 00000000 		.word	isRingOnTimeEnabled
 1766 02bc 00000000 		.word	ringOnTimeStart
 1767 02c0 00000000 		.word	ringOnTimeStop
 1768              		.cfi_endproc
 1769              	.LFE47:
 1771              		.section	.text.modeKeyClicked,"ax",%progbits
 1772              		.align	1
 1773              		.global	modeKeyClicked
 1774              		.syntax unified
 1775              		.code	16
 1776              		.thumb_func
 1778              	modeKeyClicked:
 1779              	.LFB48:
 455:Src/main.c    **** 
 456:Src/main.c    **** 
 457:Src/main.c    **** void modeKeyClicked() {
 1780              		.loc 1 457 23 is_stmt 1 view -0
 1781              		.cfi_startproc
 1782              		@ args = 0, pretend = 0, frame = 0
 1783              		@ frame_needed = 0, uses_anonymous_args = 0
 458:Src/main.c    **** 
 459:Src/main.c    **** 	if(isAlarming){
 1784              		.loc 1 459 2 view .LVU497
 1785              		.loc 1 459 5 is_stmt 0 view .LVU498
 1786 0000 454B     		ldr	r3, .L158
 457:Src/main.c    **** 
 1787              		.loc 1 457 23 view .LVU499
 1788 0002 70B5     		push	{r4, r5, r6, lr}
 1789              	.LCFI10:
 1790              		.cfi_def_cfa_offset 16
 1791              		.cfi_offset 4, -16
 1792              		.cfi_offset 5, -12
 1793              		.cfi_offset 6, -8
 1794              		.cfi_offset 14, -4
 1795              		.loc 1 459 4 view .LVU500
 1796 0004 1B78     		ldrb	r3, [r3]
 1797 0006 002B     		cmp	r3, #0
 1798 0008 02D0     		beq	.L128
 460:Src/main.c    **** 		alarmStop();
 1799              		.loc 1 460 3 is_stmt 1 view .LVU501
 1800 000a FFF7FEFF 		bl	alarmStop
 1801              	.LVL123:
 461:Src/main.c    **** 		return;
 1802              		.loc 1 461 3 view .LVU502
 1803              	.L127:
 462:Src/main.c    **** 	}
 463:Src/main.c    **** 
 464:Src/main.c    **** 	if (currentMode == MODE_SHOW_TIME || currentMode == MODE_SHOW_TEMPERTURE) {
 465:Src/main.c    **** 		currentMode = MODE_SET_HOUR;
ARM GAS  D:\Temp\ccpUgK8Y.s 			page 46


 466:Src/main.c    **** 		blinkControl = 0xFF;
 467:Src/main.c    **** 		refreshSettingsDisplay();
 468:Src/main.c    **** 		SetInterruptOuput(F_2_HZ);
 469:Src/main.c    **** 	}
 470:Src/main.c    **** 	else if (currentMode == MODE_SHOW_SECOND) {
 471:Src/main.c    **** 		lastTime.seconds = 0;
 472:Src/main.c    **** 		SetTime(&lastTime);
 473:Src/main.c    **** 		refreshTimeDisplay();
 474:Src/main.c    **** 	}
 475:Src/main.c    **** 	else if (currentMode == MODE_SET_HOUR) {
 476:Src/main.c    **** 		currentMode = MODE_SET_MINUTE;
 477:Src/main.c    **** 		blinkControl = 0xFF;
 478:Src/main.c    **** 		refreshSettingsDisplay();
 479:Src/main.c    **** 	}
 480:Src/main.c    **** 	else if (currentMode == MODE_SET_MINUTE) {
 481:Src/main.c    **** 		currentMode = MODE_SET_ALARM_ENABLE;
 482:Src/main.c    **** 		blinkControl = 0x00;
 483:Src/main.c    **** 		refreshSettingsDisplay();
 484:Src/main.c    **** 	}
 485:Src/main.c    **** 	else if (currentMode == MODE_SET_ALARM_ENABLE) {
 486:Src/main.c    **** 		currentMode = isAlarmEnabled ? MODE_SET_ALARM_HOUR : MODE_SET_TEMP_SHOW;
 487:Src/main.c    **** 		blinkControl = 0xFF;
 488:Src/main.c    **** 		refreshSettingsDisplay();
 489:Src/main.c    **** 	}
 490:Src/main.c    **** 	else if (currentMode == MODE_SET_ALARM_HOUR) {
 491:Src/main.c    **** 		currentMode = MODE_SET_ALARM_MINUTE;
 492:Src/main.c    **** 		blinkControl = 0xFF;
 493:Src/main.c    **** 		refreshSettingsDisplay();
 494:Src/main.c    **** 	}
 495:Src/main.c    **** 	else if (currentMode == MODE_SET_ALARM_MINUTE) {
 496:Src/main.c    **** 		currentMode = MODE_SET_TEMP_SHOW;
 497:Src/main.c    **** 		blinkControl = 0x00;
 498:Src/main.c    **** 		refreshSettingsDisplay();
 499:Src/main.c    **** 	}
 500:Src/main.c    **** 	else if (currentMode == MODE_SET_TEMP_SHOW) {
 501:Src/main.c    **** 		if(tempertureShowTime != 0){
 502:Src/main.c    **** 			currentMode = MODE_SET_TEMP_HIDE;
 503:Src/main.c    **** 		}
 504:Src/main.c    **** 		else{
 505:Src/main.c    **** 			currentMode = MODE_SET_BRIGHTNESS;
 506:Src/main.c    **** 		}
 507:Src/main.c    **** 		blinkControl = 0x00;
 508:Src/main.c    **** 		refreshSettingsDisplay();
 509:Src/main.c    **** 
 510:Src/main.c    **** 	}
 511:Src/main.c    **** 	else if (currentMode == MODE_SET_TEMP_HIDE) {
 512:Src/main.c    **** 		currentMode = MODE_SET_BRIGHTNESS;
 513:Src/main.c    **** 		blinkControl = 0x00;
 514:Src/main.c    **** 		refreshSettingsDisplay();
 515:Src/main.c    **** 	}
 516:Src/main.c    **** 	else if (currentMode == MODE_SET_BRIGHTNESS) {
 517:Src/main.c    **** 		if(savedBrightness == 0){
 518:Src/main.c    **** 			currentMode = MODE_SET_BRIGHTNESS_STRONG;
 519:Src/main.c    **** 		}
 520:Src/main.c    **** 		else{
 521:Src/main.c    **** 			currentMode = MODE_SET_ROT_ENABLE;
 522:Src/main.c    **** 		}
ARM GAS  D:\Temp\ccpUgK8Y.s 			page 47


 523:Src/main.c    **** 		blinkControl = 0x00;
 524:Src/main.c    **** 		refreshSettingsDisplay();
 525:Src/main.c    **** 	}
 526:Src/main.c    **** 	else if (currentMode == MODE_SET_BRIGHTNESS_STRONG) {
 527:Src/main.c    **** 		currentMode = MODE_SET_BRIGHTNESS_WEAK;
 528:Src/main.c    **** 		blinkControl = 0x00;
 529:Src/main.c    **** 		TM1637SetBrightness(weakBrightness);
 530:Src/main.c    **** 		refreshSettingsDisplay();
 531:Src/main.c    **** 	}
 532:Src/main.c    **** 	else if (currentMode == MODE_SET_BRIGHTNESS_WEAK) {
 533:Src/main.c    **** 		currentMode = MODE_SET_ROT_ENABLE;
 534:Src/main.c    **** 		blinkControl = 0x00;
 535:Src/main.c    **** 		TM1637SetBrightness(strongBrightness);
 536:Src/main.c    **** 		isWeakBrightness = false;
 537:Src/main.c    **** 		refreshSettingsDisplay();
 538:Src/main.c    **** 	}
 539:Src/main.c    **** 	else if (currentMode == MODE_SET_ROT_ENABLE) {
 540:Src/main.c    **** 		blinkControl = 0x00;
 541:Src/main.c    **** 		if(!isRingOnTimeEnabled){
 542:Src/main.c    **** 			currentMode = MODE_SHOW_TIME;
 543:Src/main.c    **** 			// 设置时间
 544:Src/main.c    **** 			TimeNow(&time);
 545:Src/main.c    **** 			lastTime.seconds = time.seconds;
 546:Src/main.c    **** 			SetTime(&lastTime);
 547:Src/main.c    **** 			lastRingOnTimeHour = lastTime.hours;
 548:Src/main.c    **** 
 549:Src/main.c    **** 			saveSettings();
 550:Src/main.c    **** 
 551:Src/main.c    **** 			refreshTimeDisplay();
 552:Src/main.c    **** 			EnableSencodInterruptOuput();
 553:Src/main.c    **** 			lastDisplayChangeTime = HAL_GetTick();
 554:Src/main.c    **** 		}
 555:Src/main.c    **** 		else{
 556:Src/main.c    **** 			currentMode = MODE_SET_ROT_START;
 557:Src/main.c    **** 			refreshSettingsDisplay();
 558:Src/main.c    **** 		}
 559:Src/main.c    **** 	}
 560:Src/main.c    **** 	else if (currentMode == MODE_SET_ROT_START) {
 561:Src/main.c    **** 		currentMode = MODE_SET_ROT_STOP;
 562:Src/main.c    **** 		blinkControl = 0x00;
 563:Src/main.c    **** 		refreshSettingsDisplay();
 564:Src/main.c    **** 	}
 565:Src/main.c    **** 	else if (currentMode == MODE_SET_ROT_STOP) {
 566:Src/main.c    **** 		currentMode = MODE_SHOW_TIME;
 567:Src/main.c    **** 		// 设置时间
 568:Src/main.c    **** 		TimeNow(&time);
 569:Src/main.c    **** 		lastTime.seconds = time.seconds;
 570:Src/main.c    **** 		SetTime(&lastTime);
 571:Src/main.c    **** 		lastRingOnTimeHour = lastTime.hours;
 572:Src/main.c    **** 		saveSettings();
 573:Src/main.c    **** 		refreshTimeDisplay();
 574:Src/main.c    **** 		EnableSencodInterruptOuput();
 575:Src/main.c    **** 		lastDisplayChangeTime = HAL_GetTick();
 576:Src/main.c    **** 
 577:Src/main.c    **** 	}
 578:Src/main.c    **** }
 1804              		.loc 1 578 1 is_stmt 0 view .LVU503
ARM GAS  D:\Temp\ccpUgK8Y.s 			page 48


 1805              		@ sp needed
 1806 000e 70BD     		pop	{r4, r5, r6, pc}
 1807              	.L128:
 464:Src/main.c    **** 		currentMode = MODE_SET_HOUR;
 1808              		.loc 1 464 2 is_stmt 1 view .LVU504
 464:Src/main.c    **** 		currentMode = MODE_SET_HOUR;
 1809              		.loc 1 464 18 is_stmt 0 view .LVU505
 1810 0010 424B     		ldr	r3, .L158+4
 1811 0012 1878     		ldrb	r0, [r3]
 1812 0014 0F28     		cmp	r0, #15
 1813 0016 FAD8     		bhi	.L127
 1814 0018 FFF7FEFF 		bl	__gnu_thumb1_case_uqi
 1815              	.L131:
 1816 001c 08       		.byte	(.L144-.L131)/2
 1817 001d 13       		.byte	(.L145-.L131)/2
 1818 001e 08       		.byte	(.L144-.L131)/2
 1819 001f 1B       		.byte	(.L143-.L131)/2
 1820 0020 21       		.byte	(.L142-.L131)/2
 1821 0021 26       		.byte	(.L141-.L131)/2
 1822 0022 2D       		.byte	(.L140-.L131)/2
 1823 0023 2F       		.byte	(.L139-.L131)/2
 1824 0024 31       		.byte	(.L138-.L131)/2
 1825 0025 37       		.byte	(.L137-.L131)/2
 1826 0026 39       		.byte	(.L136-.L131)/2
 1827 0027 40       		.byte	(.L135-.L131)/2
 1828 0028 4C       		.byte	(.L134-.L131)/2
 1829 0029 58       		.byte	(.L133-.L131)/2
 1830 002a 7A       		.byte	(.L132-.L131)/2
 1831 002b 7C       		.byte	(.L130-.L131)/2
 1832              		.p2align 1
 1833              	.L144:
 465:Src/main.c    **** 		blinkControl = 0xFF;
 1834              		.loc 1 465 3 is_stmt 1 view .LVU506
 465:Src/main.c    **** 		blinkControl = 0xFF;
 1835              		.loc 1 465 15 is_stmt 0 view .LVU507
 1836 002c 0322     		movs	r2, #3
 1837 002e 1A70     		strb	r2, [r3]
 466:Src/main.c    **** 		refreshSettingsDisplay();
 1838              		.loc 1 466 3 is_stmt 1 view .LVU508
 466:Src/main.c    **** 		refreshSettingsDisplay();
 1839              		.loc 1 466 16 is_stmt 0 view .LVU509
 1840 0030 3B4B     		ldr	r3, .L158+8
 1841 0032 FC32     		adds	r2, r2, #252
 1842 0034 1A70     		strb	r2, [r3]
 467:Src/main.c    **** 		SetInterruptOuput(F_2_HZ);
 1843              		.loc 1 467 3 is_stmt 1 view .LVU510
 1844 0036 FFF7FEFF 		bl	refreshSettingsDisplay
 1845              	.LVL124:
 468:Src/main.c    **** 	}
 1846              		.loc 1 468 3 view .LVU511
 1847 003a 0920     		movs	r0, #9
 1848 003c FFF7FEFF 		bl	SetInterruptOuput
 1849              	.LVL125:
 1850 0040 E5E7     		b	.L127
 1851              	.L145:
 471:Src/main.c    **** 		SetTime(&lastTime);
 1852              		.loc 1 471 3 view .LVU512
ARM GAS  D:\Temp\ccpUgK8Y.s 			page 49


 471:Src/main.c    **** 		SetTime(&lastTime);
 1853              		.loc 1 471 20 is_stmt 0 view .LVU513
 1854 0042 0023     		movs	r3, #0
 1855 0044 3748     		ldr	r0, .L158+12
 1856 0046 0370     		strb	r3, [r0]
 472:Src/main.c    **** 		refreshTimeDisplay();
 1857              		.loc 1 472 3 is_stmt 1 view .LVU514
 1858 0048 FFF7FEFF 		bl	SetTime
 1859              	.LVL126:
 473:Src/main.c    **** 	}
 1860              		.loc 1 473 3 view .LVU515
 1861 004c FFF7FEFF 		bl	refreshTimeDisplay
 1862              	.LVL127:
 1863 0050 DDE7     		b	.L127
 1864              	.L143:
 476:Src/main.c    **** 		blinkControl = 0xFF;
 1865              		.loc 1 476 3 view .LVU516
 476:Src/main.c    **** 		blinkControl = 0xFF;
 1866              		.loc 1 476 15 is_stmt 0 view .LVU517
 1867 0052 0422     		movs	r2, #4
 1868              	.L146:
 486:Src/main.c    **** 		blinkControl = 0xFF;
 1869              		.loc 1 486 15 discriminator 4 view .LVU518
 1870 0054 1A70     		strb	r2, [r3]
 487:Src/main.c    **** 		refreshSettingsDisplay();
 1871              		.loc 1 487 3 is_stmt 1 view .LVU519
 487:Src/main.c    **** 		refreshSettingsDisplay();
 1872              		.loc 1 487 16 is_stmt 0 view .LVU520
 1873 0056 FF22     		movs	r2, #255
 1874 0058 314B     		ldr	r3, .L158+8
 1875              	.L154:
 562:Src/main.c    **** 		refreshSettingsDisplay();
 1876              		.loc 1 562 16 view .LVU521
 1877 005a 1A70     		strb	r2, [r3]
 1878 005c 27E0     		b	.L156
 1879              	.L142:
 481:Src/main.c    **** 		blinkControl = 0x00;
 1880              		.loc 1 481 3 is_stmt 1 view .LVU522
 481:Src/main.c    **** 		blinkControl = 0x00;
 1881              		.loc 1 481 15 is_stmt 0 view .LVU523
 1882 005e 0522     		movs	r2, #5
 1883              	.L157:
 561:Src/main.c    **** 		blinkControl = 0x00;
 1884              		.loc 1 561 15 view .LVU524
 1885 0060 1A70     		strb	r2, [r3]
 562:Src/main.c    **** 		refreshSettingsDisplay();
 1886              		.loc 1 562 3 is_stmt 1 view .LVU525
 562:Src/main.c    **** 		refreshSettingsDisplay();
 1887              		.loc 1 562 16 is_stmt 0 view .LVU526
 1888 0062 0022     		movs	r2, #0
 1889 0064 2E4B     		ldr	r3, .L158+8
 1890 0066 F8E7     		b	.L154
 1891              	.L141:
 486:Src/main.c    **** 		blinkControl = 0xFF;
 1892              		.loc 1 486 3 is_stmt 1 view .LVU527
 486:Src/main.c    **** 		blinkControl = 0xFF;
 1893              		.loc 1 486 32 is_stmt 0 view .LVU528
ARM GAS  D:\Temp\ccpUgK8Y.s 			page 50


 1894 0068 2F4A     		ldr	r2, .L158+16
 486:Src/main.c    **** 		blinkControl = 0xFF;
 1895              		.loc 1 486 54 view .LVU529
 1896 006a 1178     		ldrb	r1, [r2]
 486:Src/main.c    **** 		blinkControl = 0xFF;
 1897              		.loc 1 486 54 discriminator 2 view .LVU530
 1898 006c 0822     		movs	r2, #8
 486:Src/main.c    **** 		blinkControl = 0xFF;
 1899              		.loc 1 486 54 view .LVU531
 1900 006e 0029     		cmp	r1, #0
 1901 0070 F0D0     		beq	.L146
 486:Src/main.c    **** 		blinkControl = 0xFF;
 1902              		.loc 1 486 54 discriminator 1 view .LVU532
 1903 0072 023A     		subs	r2, r2, #2
 1904 0074 EEE7     		b	.L146
 1905              	.L140:
 491:Src/main.c    **** 		blinkControl = 0xFF;
 1906              		.loc 1 491 3 is_stmt 1 view .LVU533
 491:Src/main.c    **** 		blinkControl = 0xFF;
 1907              		.loc 1 491 15 is_stmt 0 view .LVU534
 1908 0076 0722     		movs	r2, #7
 1909 0078 ECE7     		b	.L146
 1910              	.L139:
 496:Src/main.c    **** 		blinkControl = 0x00;
 1911              		.loc 1 496 3 is_stmt 1 view .LVU535
 496:Src/main.c    **** 		blinkControl = 0x00;
 1912              		.loc 1 496 15 is_stmt 0 view .LVU536
 1913 007a 0822     		movs	r2, #8
 1914 007c F0E7     		b	.L157
 1915              	.L138:
 501:Src/main.c    **** 			currentMode = MODE_SET_TEMP_HIDE;
 1916              		.loc 1 501 3 is_stmt 1 view .LVU537
 501:Src/main.c    **** 			currentMode = MODE_SET_TEMP_HIDE;
 1917              		.loc 1 501 25 is_stmt 0 view .LVU538
 1918 007e 2B4A     		ldr	r2, .L158+20
 501:Src/main.c    **** 			currentMode = MODE_SET_TEMP_HIDE;
 1919              		.loc 1 501 5 view .LVU539
 1920 0080 1278     		ldrb	r2, [r2]
 502:Src/main.c    **** 		}
 1921              		.loc 1 502 16 view .LVU540
 1922 0082 5142     		rsbs	r1, r2, #0
 1923 0084 4A41     		adcs	r2, r2, r1
 1924 0086 0932     		adds	r2, r2, #9
 1925 0088 EAE7     		b	.L157
 1926              	.L137:
 512:Src/main.c    **** 		blinkControl = 0x00;
 1927              		.loc 1 512 3 is_stmt 1 view .LVU541
 512:Src/main.c    **** 		blinkControl = 0x00;
 1928              		.loc 1 512 15 is_stmt 0 view .LVU542
 1929 008a 0A22     		movs	r2, #10
 1930 008c E8E7     		b	.L157
 1931              	.L136:
 517:Src/main.c    **** 			currentMode = MODE_SET_BRIGHTNESS_STRONG;
 1932              		.loc 1 517 3 is_stmt 1 view .LVU543
 517:Src/main.c    **** 			currentMode = MODE_SET_BRIGHTNESS_STRONG;
 1933              		.loc 1 517 22 is_stmt 0 view .LVU544
 1934 008e 284A     		ldr	r2, .L158+24
ARM GAS  D:\Temp\ccpUgK8Y.s 			page 51


 517:Src/main.c    **** 			currentMode = MODE_SET_BRIGHTNESS_STRONG;
 1935              		.loc 1 517 5 view .LVU545
 1936 0090 1178     		ldrb	r1, [r2]
 521:Src/main.c    **** 		}
 1937              		.loc 1 521 16 view .LVU546
 1938 0092 0D22     		movs	r2, #13
 517:Src/main.c    **** 			currentMode = MODE_SET_BRIGHTNESS_STRONG;
 1939              		.loc 1 517 5 view .LVU547
 1940 0094 0029     		cmp	r1, #0
 1941 0096 E3D1     		bne	.L157
 518:Src/main.c    **** 		}
 1942              		.loc 1 518 16 view .LVU548
 1943 0098 023A     		subs	r2, r2, #2
 1944 009a E1E7     		b	.L157
 1945              	.L135:
 527:Src/main.c    **** 		blinkControl = 0x00;
 1946              		.loc 1 527 3 is_stmt 1 view .LVU549
 527:Src/main.c    **** 		blinkControl = 0x00;
 1947              		.loc 1 527 15 is_stmt 0 view .LVU550
 1948 009c 0C22     		movs	r2, #12
 1949 009e 1A70     		strb	r2, [r3]
 528:Src/main.c    **** 		TM1637SetBrightness(weakBrightness);
 1950              		.loc 1 528 3 is_stmt 1 view .LVU551
 528:Src/main.c    **** 		TM1637SetBrightness(weakBrightness);
 1951              		.loc 1 528 16 is_stmt 0 view .LVU552
 1952 00a0 0022     		movs	r2, #0
 1953 00a2 1F4B     		ldr	r3, .L158+8
 1954 00a4 1A70     		strb	r2, [r3]
 529:Src/main.c    **** 		refreshSettingsDisplay();
 1955              		.loc 1 529 3 is_stmt 1 view .LVU553
 1956 00a6 234B     		ldr	r3, .L158+28
 1957 00a8 1878     		ldrb	r0, [r3]
 1958 00aa FFF7FEFF 		bl	TM1637SetBrightness
 1959              	.LVL128:
 530:Src/main.c    **** 	}
 1960              		.loc 1 530 3 view .LVU554
 1961              	.L156:
 563:Src/main.c    **** 	}
 1962              		.loc 1 563 3 view .LVU555
 1963 00ae FFF7FEFF 		bl	refreshSettingsDisplay
 1964              	.LVL129:
 1965 00b2 ACE7     		b	.L127
 1966              	.L134:
 533:Src/main.c    **** 		blinkControl = 0x00;
 1967              		.loc 1 533 3 view .LVU556
 533:Src/main.c    **** 		blinkControl = 0x00;
 1968              		.loc 1 533 15 is_stmt 0 view .LVU557
 1969 00b4 0D22     		movs	r2, #13
 534:Src/main.c    **** 		TM1637SetBrightness(strongBrightness);
 1970              		.loc 1 534 16 view .LVU558
 1971 00b6 0024     		movs	r4, #0
 533:Src/main.c    **** 		blinkControl = 0x00;
 1972              		.loc 1 533 15 view .LVU559
 1973 00b8 1A70     		strb	r2, [r3]
 534:Src/main.c    **** 		TM1637SetBrightness(strongBrightness);
 1974              		.loc 1 534 3 is_stmt 1 view .LVU560
 534:Src/main.c    **** 		TM1637SetBrightness(strongBrightness);
ARM GAS  D:\Temp\ccpUgK8Y.s 			page 52


 1975              		.loc 1 534 16 is_stmt 0 view .LVU561
 1976 00ba 194B     		ldr	r3, .L158+8
 1977 00bc 1C70     		strb	r4, [r3]
 535:Src/main.c    **** 		isWeakBrightness = false;
 1978              		.loc 1 535 3 is_stmt 1 view .LVU562
 1979 00be 1E4B     		ldr	r3, .L158+32
 1980 00c0 1878     		ldrb	r0, [r3]
 1981 00c2 FFF7FEFF 		bl	TM1637SetBrightness
 1982              	.LVL130:
 536:Src/main.c    **** 		refreshSettingsDisplay();
 1983              		.loc 1 536 3 view .LVU563
 536:Src/main.c    **** 		refreshSettingsDisplay();
 1984              		.loc 1 536 20 is_stmt 0 view .LVU564
 1985 00c6 1D4B     		ldr	r3, .L158+36
 1986 00c8 1C70     		strb	r4, [r3]
 537:Src/main.c    **** 	}
 1987              		.loc 1 537 3 is_stmt 1 view .LVU565
 1988 00ca F0E7     		b	.L156
 1989              	.L133:
 540:Src/main.c    **** 		if(!isRingOnTimeEnabled){
 1990              		.loc 1 540 3 view .LVU566
 540:Src/main.c    **** 		if(!isRingOnTimeEnabled){
 1991              		.loc 1 540 16 is_stmt 0 view .LVU567
 1992 00cc 0021     		movs	r1, #0
 1993 00ce 144A     		ldr	r2, .L158+8
 1994 00d0 1170     		strb	r1, [r2]
 541:Src/main.c    **** 			currentMode = MODE_SHOW_TIME;
 1995              		.loc 1 541 3 is_stmt 1 view .LVU568
 541:Src/main.c    **** 			currentMode = MODE_SHOW_TIME;
 1996              		.loc 1 541 6 is_stmt 0 view .LVU569
 1997 00d2 1B4A     		ldr	r2, .L158+40
 541:Src/main.c    **** 			currentMode = MODE_SHOW_TIME;
 1998              		.loc 1 541 5 view .LVU570
 1999 00d4 1278     		ldrb	r2, [r2]
 2000 00d6 8A42     		cmp	r2, r1
 2001 00d8 18D1     		bne	.L149
 2002              	.L155:
 568:Src/main.c    **** 		lastTime.seconds = time.seconds;
 2003              		.loc 1 568 3 view .LVU571
 2004 00da 1A4D     		ldr	r5, .L158+44
 566:Src/main.c    **** 		// 设置时间
 2005              		.loc 1 566 15 view .LVU572
 2006 00dc 1A70     		strb	r2, [r3]
 568:Src/main.c    **** 		lastTime.seconds = time.seconds;
 2007              		.loc 1 568 3 is_stmt 1 view .LVU573
 2008 00de 2800     		movs	r0, r5
 2009 00e0 FFF7FEFF 		bl	TimeNow
 2010              	.LVL131:
 569:Src/main.c    **** 		SetTime(&lastTime);
 2011              		.loc 1 569 3 view .LVU574
 569:Src/main.c    **** 		SetTime(&lastTime);
 2012              		.loc 1 569 20 is_stmt 0 view .LVU575
 2013 00e4 0F4C     		ldr	r4, .L158+12
 2014 00e6 2B78     		ldrb	r3, [r5]
 570:Src/main.c    **** 		lastRingOnTimeHour = lastTime.hours;
 2015              		.loc 1 570 3 view .LVU576
 2016 00e8 2000     		movs	r0, r4
ARM GAS  D:\Temp\ccpUgK8Y.s 			page 53


 569:Src/main.c    **** 		SetTime(&lastTime);
 2017              		.loc 1 569 20 view .LVU577
 2018 00ea 2370     		strb	r3, [r4]
 570:Src/main.c    **** 		lastRingOnTimeHour = lastTime.hours;
 2019              		.loc 1 570 3 is_stmt 1 view .LVU578
 2020 00ec FFF7FEFF 		bl	SetTime
 2021              	.LVL132:
 571:Src/main.c    **** 		saveSettings();
 2022              		.loc 1 571 3 view .LVU579
 571:Src/main.c    **** 		saveSettings();
 2023              		.loc 1 571 22 is_stmt 0 view .LVU580
 2024 00f0 154B     		ldr	r3, .L158+48
 2025 00f2 E278     		ldrb	r2, [r4, #3]
 2026 00f4 1A70     		strb	r2, [r3]
 572:Src/main.c    **** 		refreshTimeDisplay();
 2027              		.loc 1 572 3 is_stmt 1 view .LVU581
 2028 00f6 FFF7FEFF 		bl	saveSettings
 2029              	.LVL133:
 573:Src/main.c    **** 		EnableSencodInterruptOuput();
 2030              		.loc 1 573 3 view .LVU582
 2031 00fa FFF7FEFF 		bl	refreshTimeDisplay
 2032              	.LVL134:
 574:Src/main.c    **** 		lastDisplayChangeTime = HAL_GetTick();
 2033              		.loc 1 574 3 view .LVU583
 2034 00fe FFF7FEFF 		bl	EnableSencodInterruptOuput
 2035              	.LVL135:
 575:Src/main.c    **** 
 2036              		.loc 1 575 3 view .LVU584
 575:Src/main.c    **** 
 2037              		.loc 1 575 27 is_stmt 0 view .LVU585
 2038 0102 FFF7FEFF 		bl	HAL_GetTick
 2039              	.LVL136:
 575:Src/main.c    **** 
 2040              		.loc 1 575 25 discriminator 1 view .LVU586
 2041 0106 114B     		ldr	r3, .L158+52
 2042 0108 1860     		str	r0, [r3]
 2043 010a 80E7     		b	.L127
 2044              	.L149:
 556:Src/main.c    **** 			refreshSettingsDisplay();
 2045              		.loc 1 556 4 is_stmt 1 view .LVU587
 556:Src/main.c    **** 			refreshSettingsDisplay();
 2046              		.loc 1 556 16 is_stmt 0 view .LVU588
 2047 010c 0E22     		movs	r2, #14
 2048 010e A4E7     		b	.L154
 2049              	.L132:
 561:Src/main.c    **** 		blinkControl = 0x00;
 2050              		.loc 1 561 3 is_stmt 1 view .LVU589
 561:Src/main.c    **** 		blinkControl = 0x00;
 2051              		.loc 1 561 15 is_stmt 0 view .LVU590
 2052 0110 0F22     		movs	r2, #15
 2053 0112 A5E7     		b	.L157
 2054              	.L130:
 566:Src/main.c    **** 		// 设置时间
 2055              		.loc 1 566 3 is_stmt 1 view .LVU591
 566:Src/main.c    **** 		// 设置时间
 2056              		.loc 1 566 15 is_stmt 0 view .LVU592
 2057 0114 0022     		movs	r2, #0
ARM GAS  D:\Temp\ccpUgK8Y.s 			page 54


 2058 0116 E0E7     		b	.L155
 2059              	.L159:
 2060              		.align	2
 2061              	.L158:
 2062 0118 00000000 		.word	isAlarming
 2063 011c 00000000 		.word	currentMode
 2064 0120 00000000 		.word	blinkControl
 2065 0124 00000000 		.word	lastTime
 2066 0128 00000000 		.word	isAlarmEnabled
 2067 012c 00000000 		.word	tempertureShowTime
 2068 0130 00000000 		.word	savedBrightness
 2069 0134 00000000 		.word	weakBrightness
 2070 0138 00000000 		.word	strongBrightness
 2071 013c 00000000 		.word	isWeakBrightness
 2072 0140 00000000 		.word	isRingOnTimeEnabled
 2073 0144 00000000 		.word	time
 2074 0148 00000000 		.word	lastRingOnTimeHour
 2075 014c 00000000 		.word	lastDisplayChangeTime
 2076              		.cfi_endproc
 2077              	.LFE48:
 2079              		.section	.text.modeKeyLongPressed,"ax",%progbits
 2080              		.align	1
 2081              		.global	modeKeyLongPressed
 2082              		.syntax unified
 2083              		.code	16
 2084              		.thumb_func
 2086              	modeKeyLongPressed:
 2087              	.LFB49:
 579:Src/main.c    **** 
 580:Src/main.c    **** 
 581:Src/main.c    **** void modeKeyLongPressed(){
 2088              		.loc 1 581 26 is_stmt 1 view -0
 2089              		.cfi_startproc
 2090              		@ args = 0, pretend = 0, frame = 0
 2091              		@ frame_needed = 0, uses_anonymous_args = 0
 582:Src/main.c    **** 	if(isAlarming){
 2092              		.loc 1 582 2 view .LVU594
 2093              		.loc 1 582 5 is_stmt 0 view .LVU595
 2094 0000 0A4B     		ldr	r3, .L163
 581:Src/main.c    **** 	if(isAlarming){
 2095              		.loc 1 581 26 view .LVU596
 2096 0002 10B5     		push	{r4, lr}
 2097              	.LCFI11:
 2098              		.cfi_def_cfa_offset 8
 2099              		.cfi_offset 4, -8
 2100              		.cfi_offset 14, -4
 2101              		.loc 1 582 4 view .LVU597
 2102 0004 1978     		ldrb	r1, [r3]
 2103 0006 0029     		cmp	r1, #0
 2104 0008 02D0     		beq	.L161
 583:Src/main.c    **** 		alarmStop();
 2105              		.loc 1 583 3 is_stmt 1 view .LVU598
 2106 000a FFF7FEFF 		bl	alarmStop
 2107              	.LVL137:
 584:Src/main.c    **** 		return;
 2108              		.loc 1 584 3 view .LVU599
 2109              	.L160:
ARM GAS  D:\Temp\ccpUgK8Y.s 			page 55


 585:Src/main.c    **** 	}
 586:Src/main.c    **** 
 587:Src/main.c    **** 	if(currentMode >= MODE_SET_HOUR && currentMode <= MODE_SET_ROT_STOP){
 588:Src/main.c    **** 		currentMode = MODE_SHOW_TIME;
 589:Src/main.c    **** 		refreshTimeDisplay();
 590:Src/main.c    **** 		lastDisplayChangeTime = HAL_GetTick();
 591:Src/main.c    **** 	}
 592:Src/main.c    **** }
 2110              		.loc 1 592 1 is_stmt 0 view .LVU600
 2111              		@ sp needed
 2112 000e 10BD     		pop	{r4, pc}
 2113              	.L161:
 587:Src/main.c    **** 		currentMode = MODE_SHOW_TIME;
 2114              		.loc 1 587 2 is_stmt 1 view .LVU601
 587:Src/main.c    **** 		currentMode = MODE_SHOW_TIME;
 2115              		.loc 1 587 34 is_stmt 0 view .LVU602
 2116 0010 074A     		ldr	r2, .L163+4
 2117 0012 1378     		ldrb	r3, [r2]
 587:Src/main.c    **** 		currentMode = MODE_SHOW_TIME;
 2118              		.loc 1 587 4 view .LVU603
 2119 0014 033B     		subs	r3, r3, #3
 2120 0016 0C2B     		cmp	r3, #12
 2121 0018 F9D8     		bhi	.L160
 2122              	.LBB24:
 2123              	.LBI24:
 581:Src/main.c    **** 	if(isAlarming){
 2124              		.loc 1 581 6 is_stmt 1 view .LVU604
 2125              	.LBB25:
 588:Src/main.c    **** 		refreshTimeDisplay();
 2126              		.loc 1 588 3 view .LVU605
 588:Src/main.c    **** 		refreshTimeDisplay();
 2127              		.loc 1 588 15 is_stmt 0 view .LVU606
 2128 001a 1170     		strb	r1, [r2]
 589:Src/main.c    **** 		lastDisplayChangeTime = HAL_GetTick();
 2129              		.loc 1 589 3 is_stmt 1 view .LVU607
 2130 001c FFF7FEFF 		bl	refreshTimeDisplay
 2131              	.LVL138:
 590:Src/main.c    **** 	}
 2132              		.loc 1 590 3 view .LVU608
 590:Src/main.c    **** 	}
 2133              		.loc 1 590 27 is_stmt 0 view .LVU609
 2134 0020 FFF7FEFF 		bl	HAL_GetTick
 2135              	.LVL139:
 590:Src/main.c    **** 	}
 2136              		.loc 1 590 25 discriminator 1 view .LVU610
 2137 0024 034B     		ldr	r3, .L163+8
 2138 0026 1860     		str	r0, [r3]
 2139 0028 F1E7     		b	.L160
 2140              	.L164:
 2141 002a C046     		.align	2
 2142              	.L163:
 2143 002c 00000000 		.word	isAlarming
 2144 0030 00000000 		.word	currentMode
 2145 0034 00000000 		.word	lastDisplayChangeTime
 2146              	.LBE25:
 2147              	.LBE24:
 2148              		.cfi_endproc
ARM GAS  D:\Temp\ccpUgK8Y.s 			page 56


 2149              	.LFE49:
 2151              		.section	.text.setKeyClicked,"ax",%progbits
 2152              		.align	1
 2153              		.global	setKeyClicked
 2154              		.syntax unified
 2155              		.code	16
 2156              		.thumb_func
 2158              	setKeyClicked:
 2159              	.LFB50:
 593:Src/main.c    **** 
 594:Src/main.c    **** void setKeyClicked() {
 2160              		.loc 1 594 22 is_stmt 1 view -0
 2161              		.cfi_startproc
 2162              		@ args = 0, pretend = 0, frame = 0
 2163              		@ frame_needed = 0, uses_anonymous_args = 0
 595:Src/main.c    **** 	if(isAlarming){
 2164              		.loc 1 595 2 view .LVU612
 2165              		.loc 1 595 5 is_stmt 0 view .LVU613
 2166 0000 454B     		ldr	r3, .L209
 594:Src/main.c    **** 	if(isAlarming){
 2167              		.loc 1 594 22 view .LVU614
 2168 0002 10B5     		push	{r4, lr}
 2169              	.LCFI12:
 2170              		.cfi_def_cfa_offset 8
 2171              		.cfi_offset 4, -8
 2172              		.cfi_offset 14, -4
 2173              		.loc 1 595 4 view .LVU615
 2174 0004 1B78     		ldrb	r3, [r3]
 2175 0006 002B     		cmp	r3, #0
 2176 0008 02D0     		beq	.L166
 596:Src/main.c    **** 		alarmStop();
 2177              		.loc 1 596 3 is_stmt 1 view .LVU616
 2178 000a FFF7FEFF 		bl	alarmStop
 2179              	.LVL140:
 597:Src/main.c    **** 		return;
 2180              		.loc 1 597 3 view .LVU617
 2181              	.L165:
 598:Src/main.c    **** 	}
 599:Src/main.c    **** 
 600:Src/main.c    **** 	if (currentMode == MODE_SHOW_TIME || currentMode == MODE_SHOW_TEMPERTURE) {
 601:Src/main.c    **** 		currentMode = MODE_SHOW_SECOND;
 602:Src/main.c    **** 		refreshTimeDisplay();
 603:Src/main.c    **** 	}
 604:Src/main.c    **** 	else if (currentMode == MODE_SHOW_SECOND) {
 605:Src/main.c    **** 		currentMode = MODE_SHOW_TIME;
 606:Src/main.c    **** 		refreshTimeDisplay();
 607:Src/main.c    **** 		lastDisplayChangeTime = HAL_GetTick();
 608:Src/main.c    **** 	}
 609:Src/main.c    **** 	else if (currentMode == MODE_SET_HOUR) {
 610:Src/main.c    **** 		lastTime.hours++;
 611:Src/main.c    **** 		if (lastTime.hours > 23) {
 612:Src/main.c    **** 			lastTime.hours = 0;
 613:Src/main.c    **** 		}
 614:Src/main.c    **** 		blinkControl = 0;
 615:Src/main.c    **** 		refreshSettingsDisplay();
 616:Src/main.c    **** 	}
 617:Src/main.c    **** 	else if (currentMode == MODE_SET_MINUTE) {
ARM GAS  D:\Temp\ccpUgK8Y.s 			page 57


 618:Src/main.c    **** 		lastTime.minutes++;
 619:Src/main.c    **** 		if (lastTime.minutes > 59) {
 620:Src/main.c    **** 			lastTime.minutes = 0;
 621:Src/main.c    **** 		}
 622:Src/main.c    **** 		blinkControl = 0;
 623:Src/main.c    **** 		refreshSettingsDisplay();
 624:Src/main.c    **** 	}
 625:Src/main.c    **** 	else if (currentMode == MODE_SET_ALARM_ENABLE) {
 626:Src/main.c    **** 		isAlarmEnabled = isAlarmEnabled ? false : true;
 627:Src/main.c    **** 		blinkControl = 0;
 628:Src/main.c    **** 		refreshSettingsDisplay();
 629:Src/main.c    **** 	}
 630:Src/main.c    **** 	else if (currentMode == MODE_SET_ALARM_HOUR) {
 631:Src/main.c    **** 		alarmHour++;
 632:Src/main.c    **** 		if (alarmHour > 23) {
 633:Src/main.c    **** 			alarmHour = 0;
 634:Src/main.c    **** 		}
 635:Src/main.c    **** 		blinkControl = 0;
 636:Src/main.c    **** 		refreshSettingsDisplay();
 637:Src/main.c    **** 	}
 638:Src/main.c    **** 	else if (currentMode == MODE_SET_ALARM_MINUTE) {
 639:Src/main.c    **** 		alarmMin++;
 640:Src/main.c    **** 		if (alarmMin > 59) {
 641:Src/main.c    **** 			alarmMin = 0;
 642:Src/main.c    **** 		}
 643:Src/main.c    **** 		blinkControl = 0;
 644:Src/main.c    **** 		refreshSettingsDisplay();
 645:Src/main.c    **** 	}
 646:Src/main.c    **** 	else if (currentMode == MODE_SET_TEMP_SHOW) {
 647:Src/main.c    **** 		tempertureShowTime++;
 648:Src/main.c    **** 		if (tempertureShowTime > TEMPERTURE_MAX_SHOW_TIME) {
 649:Src/main.c    **** 			tempertureShowTime = tempertureHideTime == 0 ? 1 : 0;
 650:Src/main.c    **** 		}
 651:Src/main.c    **** 		blinkControl = 0;
 652:Src/main.c    **** 		refreshSettingsDisplay();
 653:Src/main.c    **** 	}
 654:Src/main.c    **** 	else if (currentMode == MODE_SET_TEMP_HIDE) {
 655:Src/main.c    **** 		tempertureHideTime++;
 656:Src/main.c    **** 		if (tempertureHideTime > TEMPERTURE_MAX_HIDE_TIME) {
 657:Src/main.c    **** 			tempertureHideTime = tempertureShowTime == 0 ? 1 : 0;
 658:Src/main.c    **** 		}
 659:Src/main.c    **** 		blinkControl = 0;
 660:Src/main.c    **** 		refreshSettingsDisplay();
 661:Src/main.c    **** 	}
 662:Src/main.c    **** 	else if (currentMode == MODE_SET_BRIGHTNESS) {
 663:Src/main.c    **** 		savedBrightness++;
 664:Src/main.c    **** 		if (savedBrightness > 8) {
 665:Src/main.c    **** 			savedBrightness = 0;
 666:Src/main.c    **** 		}
 667:Src/main.c    **** 		TM1637SetBrightness(savedBrightness == 0 ? 1 : savedBrightness);
 668:Src/main.c    **** 		blinkControl = 0;
 669:Src/main.c    **** 		refreshSettingsDisplay();
 670:Src/main.c    **** 	}
 671:Src/main.c    **** 	else if (currentMode == MODE_SET_BRIGHTNESS_STRONG) {
 672:Src/main.c    **** 		strongBrightness++;
 673:Src/main.c    **** 		if (strongBrightness > 8) {
 674:Src/main.c    **** 			strongBrightness = 1;
ARM GAS  D:\Temp\ccpUgK8Y.s 			page 58


 675:Src/main.c    **** 		}
 676:Src/main.c    **** 		blinkControl = 0;
 677:Src/main.c    **** 		TM1637SetBrightness(strongBrightness);
 678:Src/main.c    **** 		refreshSettingsDisplay();
 679:Src/main.c    **** 	}
 680:Src/main.c    **** 	else if (currentMode == MODE_SET_BRIGHTNESS_WEAK) {
 681:Src/main.c    **** 		weakBrightness++;
 682:Src/main.c    **** 		if (weakBrightness > 8) {
 683:Src/main.c    **** 			weakBrightness = 1;
 684:Src/main.c    **** 		}
 685:Src/main.c    **** 		blinkControl = 0;
 686:Src/main.c    **** 		TM1637SetBrightness(weakBrightness);
 687:Src/main.c    **** 		refreshSettingsDisplay();
 688:Src/main.c    **** 	}
 689:Src/main.c    **** 	else if (currentMode == MODE_SET_ROT_ENABLE) {
 690:Src/main.c    **** 		isRingOnTimeEnabled = isRingOnTimeEnabled ? false : true;
 691:Src/main.c    **** 		blinkControl = 0;
 692:Src/main.c    **** 		refreshSettingsDisplay();
 693:Src/main.c    **** 	}
 694:Src/main.c    **** 	else if (currentMode == MODE_SET_ROT_START) {
 695:Src/main.c    **** 		ringOnTimeStart++;
 696:Src/main.c    **** 		if (ringOnTimeStart > 23) {
 697:Src/main.c    **** 			ringOnTimeStart = 0;
 698:Src/main.c    **** 		}
 699:Src/main.c    **** 		blinkControl = 0;
 700:Src/main.c    **** 		refreshSettingsDisplay();
 701:Src/main.c    **** 	}
 702:Src/main.c    **** 	else if (currentMode == MODE_SET_ROT_STOP) {
 703:Src/main.c    **** 		ringOnTimeStop++;
 704:Src/main.c    **** 		if (ringOnTimeStop > 23) {
 705:Src/main.c    **** 			ringOnTimeStop = 0;
 706:Src/main.c    **** 		}
 707:Src/main.c    **** 		blinkControl = 0;
 708:Src/main.c    **** 		refreshSettingsDisplay();
 709:Src/main.c    **** 	}
 710:Src/main.c    **** }
 2182              		.loc 1 710 1 is_stmt 0 view .LVU618
 2183              		@ sp needed
 2184 000e 10BD     		pop	{r4, pc}
 2185              	.L166:
 600:Src/main.c    **** 		currentMode = MODE_SHOW_SECOND;
 2186              		.loc 1 600 2 is_stmt 1 view .LVU619
 600:Src/main.c    **** 		currentMode = MODE_SHOW_SECOND;
 2187              		.loc 1 600 18 is_stmt 0 view .LVU620
 2188 0010 424B     		ldr	r3, .L209+4
 2189 0012 1878     		ldrb	r0, [r3]
 2190 0014 0F28     		cmp	r0, #15
 2191 0016 FAD8     		bhi	.L165
 2192 0018 FFF7FEFF 		bl	__gnu_thumb1_case_uqi
 2193              	.L169:
 2194 001c 08       		.byte	(.L182-.L169)/2
 2195 001d 0D       		.byte	(.L183-.L169)/2
 2196 001e 08       		.byte	(.L182-.L169)/2
 2197 001f 16       		.byte	(.L181-.L169)/2
 2198 0020 22       		.byte	(.L180-.L169)/2
 2199 0021 2B       		.byte	(.L179-.L169)/2
 2200 0022 30       		.byte	(.L178-.L169)/2
ARM GAS  D:\Temp\ccpUgK8Y.s 			page 59


 2201 0023 37       		.byte	(.L177-.L169)/2
 2202 0024 40       		.byte	(.L176-.L169)/2
 2203 0025 4C       		.byte	(.L175-.L169)/2
 2204 0026 55       		.byte	(.L174-.L169)/2
 2205 0027 65       		.byte	(.L173-.L169)/2
 2206 0028 75       		.byte	(.L172-.L169)/2
 2207 0029 77       		.byte	(.L171-.L169)/2
 2208 002a 79       		.byte	(.L170-.L169)/2
 2209 002b 7B       		.byte	(.L168-.L169)/2
 2210              		.p2align 1
 2211              	.L182:
 601:Src/main.c    **** 		refreshTimeDisplay();
 2212              		.loc 1 601 3 is_stmt 1 view .LVU621
 601:Src/main.c    **** 		refreshTimeDisplay();
 2213              		.loc 1 601 15 is_stmt 0 view .LVU622
 2214 002c 0122     		movs	r2, #1
 2215 002e 1A70     		strb	r2, [r3]
 602:Src/main.c    **** 	}
 2216              		.loc 1 602 3 is_stmt 1 view .LVU623
 2217 0030 FFF7FEFF 		bl	refreshTimeDisplay
 2218              	.LVL141:
 2219 0034 EBE7     		b	.L165
 2220              	.L183:
 605:Src/main.c    **** 		refreshTimeDisplay();
 2221              		.loc 1 605 3 view .LVU624
 605:Src/main.c    **** 		refreshTimeDisplay();
 2222              		.loc 1 605 15 is_stmt 0 view .LVU625
 2223 0036 0022     		movs	r2, #0
 2224 0038 1A70     		strb	r2, [r3]
 606:Src/main.c    **** 		lastDisplayChangeTime = HAL_GetTick();
 2225              		.loc 1 606 3 is_stmt 1 view .LVU626
 2226 003a FFF7FEFF 		bl	refreshTimeDisplay
 2227              	.LVL142:
 607:Src/main.c    **** 	}
 2228              		.loc 1 607 3 view .LVU627
 607:Src/main.c    **** 	}
 2229              		.loc 1 607 27 is_stmt 0 view .LVU628
 2230 003e FFF7FEFF 		bl	HAL_GetTick
 2231              	.LVL143:
 607:Src/main.c    **** 	}
 2232              		.loc 1 607 25 discriminator 1 view .LVU629
 2233 0042 374B     		ldr	r3, .L209+8
 2234 0044 1860     		str	r0, [r3]
 2235 0046 E2E7     		b	.L165
 2236              	.L181:
 610:Src/main.c    **** 		if (lastTime.hours > 23) {
 2237              		.loc 1 610 3 is_stmt 1 view .LVU630
 610:Src/main.c    **** 		if (lastTime.hours > 23) {
 2238              		.loc 1 610 11 is_stmt 0 view .LVU631
 2239 0048 364A     		ldr	r2, .L209+12
 610:Src/main.c    **** 		if (lastTime.hours > 23) {
 2240              		.loc 1 610 17 view .LVU632
 2241 004a D378     		ldrb	r3, [r2, #3]
 2242 004c 0133     		adds	r3, r3, #1
 2243 004e DBB2     		uxtb	r3, r3
 611:Src/main.c    **** 			lastTime.hours = 0;
 2244              		.loc 1 611 3 is_stmt 1 view .LVU633
ARM GAS  D:\Temp\ccpUgK8Y.s 			page 60


 611:Src/main.c    **** 			lastTime.hours = 0;
 2245              		.loc 1 611 6 is_stmt 0 view .LVU634
 2246 0050 172B     		cmp	r3, #23
 2247 0052 00D9     		bls	.L184
 612:Src/main.c    **** 		}
 2248              		.loc 1 612 19 view .LVU635
 2249 0054 0023     		movs	r3, #0
 2250              	.L184:
 2251 0056 D370     		strb	r3, [r2, #3]
 614:Src/main.c    **** 		refreshSettingsDisplay();
 2252              		.loc 1 614 3 is_stmt 1 view .LVU636
 2253              	.L201:
 691:Src/main.c    **** 		refreshSettingsDisplay();
 2254              		.loc 1 691 3 view .LVU637
 691:Src/main.c    **** 		refreshSettingsDisplay();
 2255              		.loc 1 691 16 is_stmt 0 view .LVU638
 2256 0058 0022     		movs	r2, #0
 2257 005a 334B     		ldr	r3, .L209+16
 2258 005c 1A70     		strb	r2, [r3]
 2259 005e 4FE0     		b	.L200
 2260              	.L180:
 618:Src/main.c    **** 		if (lastTime.minutes > 59) {
 2261              		.loc 1 618 3 is_stmt 1 view .LVU639
 618:Src/main.c    **** 		if (lastTime.minutes > 59) {
 2262              		.loc 1 618 11 is_stmt 0 view .LVU640
 2263 0060 304A     		ldr	r2, .L209+12
 618:Src/main.c    **** 		if (lastTime.minutes > 59) {
 2264              		.loc 1 618 19 view .LVU641
 2265 0062 5378     		ldrb	r3, [r2, #1]
 2266 0064 0133     		adds	r3, r3, #1
 2267 0066 DBB2     		uxtb	r3, r3
 619:Src/main.c    **** 			lastTime.minutes = 0;
 2268              		.loc 1 619 3 is_stmt 1 view .LVU642
 619:Src/main.c    **** 			lastTime.minutes = 0;
 2269              		.loc 1 619 6 is_stmt 0 view .LVU643
 2270 0068 3B2B     		cmp	r3, #59
 2271 006a 00D9     		bls	.L185
 620:Src/main.c    **** 		}
 2272              		.loc 1 620 21 view .LVU644
 2273 006c 0023     		movs	r3, #0
 2274              	.L185:
 2275 006e 5370     		strb	r3, [r2, #1]
 622:Src/main.c    **** 		refreshSettingsDisplay();
 2276              		.loc 1 622 3 is_stmt 1 view .LVU645
 2277 0070 F2E7     		b	.L201
 2278              	.L179:
 626:Src/main.c    **** 		blinkControl = 0;
 2279              		.loc 1 626 3 view .LVU646
 626:Src/main.c    **** 		blinkControl = 0;
 2280              		.loc 1 626 18 is_stmt 0 view .LVU647
 2281 0072 2E4A     		ldr	r2, .L209+20
 2282              	.L202:
 690:Src/main.c    **** 		blinkControl = 0;
 2283              		.loc 1 690 53 view .LVU648
 2284 0074 0123     		movs	r3, #1
 2285 0076 1178     		ldrb	r1, [r2]
 2286 0078 4B40     		eors	r3, r1
ARM GAS  D:\Temp\ccpUgK8Y.s 			page 61


 2287 007a 0DE0     		b	.L205
 2288              	.L178:
 631:Src/main.c    **** 		if (alarmHour > 23) {
 2289              		.loc 1 631 3 is_stmt 1 view .LVU649
 631:Src/main.c    **** 		if (alarmHour > 23) {
 2290              		.loc 1 631 12 is_stmt 0 view .LVU650
 2291 007c 2C4A     		ldr	r2, .L209+24
 2292              	.L203:
 695:Src/main.c    **** 		if (ringOnTimeStart > 23) {
 2293              		.loc 1 695 18 view .LVU651
 2294 007e 1378     		ldrb	r3, [r2]
 2295 0080 0133     		adds	r3, r3, #1
 2296 0082 DBB2     		uxtb	r3, r3
 696:Src/main.c    **** 			ringOnTimeStart = 0;
 2297              		.loc 1 696 3 is_stmt 1 view .LVU652
 696:Src/main.c    **** 			ringOnTimeStart = 0;
 2298              		.loc 1 696 6 is_stmt 0 view .LVU653
 2299 0084 172B     		cmp	r3, #23
 2300 0086 06D8     		bhi	.L186
 2301 0088 06E0     		b	.L205
 2302              	.L177:
 639:Src/main.c    **** 		if (alarmMin > 59) {
 2303              		.loc 1 639 3 is_stmt 1 view .LVU654
 639:Src/main.c    **** 		if (alarmMin > 59) {
 2304              		.loc 1 639 11 is_stmt 0 view .LVU655
 2305 008a 2A4A     		ldr	r2, .L209+28
 2306 008c 1378     		ldrb	r3, [r2]
 2307 008e 0133     		adds	r3, r3, #1
 2308 0090 DBB2     		uxtb	r3, r3
 640:Src/main.c    **** 			alarmMin = 0;
 2309              		.loc 1 640 3 is_stmt 1 view .LVU656
 640:Src/main.c    **** 			alarmMin = 0;
 2310              		.loc 1 640 6 is_stmt 0 view .LVU657
 2311 0092 3B2B     		cmp	r3, #59
 2312 0094 00D9     		bls	.L205
 2313              	.L186:
 633:Src/main.c    **** 		}
 2314              		.loc 1 633 4 is_stmt 1 view .LVU658
 633:Src/main.c    **** 		}
 2315              		.loc 1 633 14 is_stmt 0 view .LVU659
 2316 0096 0023     		movs	r3, #0
 2317              	.L205:
 690:Src/main.c    **** 		blinkControl = 0;
 2318              		.loc 1 690 23 view .LVU660
 2319 0098 1370     		strb	r3, [r2]
 2320 009a DDE7     		b	.L201
 2321              	.L176:
 647:Src/main.c    **** 		if (tempertureShowTime > TEMPERTURE_MAX_SHOW_TIME) {
 2322              		.loc 1 647 3 is_stmt 1 view .LVU661
 647:Src/main.c    **** 		if (tempertureShowTime > TEMPERTURE_MAX_SHOW_TIME) {
 2323              		.loc 1 647 21 is_stmt 0 view .LVU662
 2324 009c 264A     		ldr	r2, .L209+32
 2325 009e 1378     		ldrb	r3, [r2]
 2326 00a0 0133     		adds	r3, r3, #1
 2327 00a2 DBB2     		uxtb	r3, r3
 2328 00a4 1370     		strb	r3, [r2]
 648:Src/main.c    **** 			tempertureShowTime = tempertureHideTime == 0 ? 1 : 0;
ARM GAS  D:\Temp\ccpUgK8Y.s 			page 62


 2329              		.loc 1 648 3 is_stmt 1 view .LVU663
 648:Src/main.c    **** 			tempertureShowTime = tempertureHideTime == 0 ? 1 : 0;
 2330              		.loc 1 648 6 is_stmt 0 view .LVU664
 2331 00a6 0F2B     		cmp	r3, #15
 2332 00a8 D6D9     		bls	.L201
 649:Src/main.c    **** 		}
 2333              		.loc 1 649 4 is_stmt 1 view .LVU665
 649:Src/main.c    **** 		}
 2334              		.loc 1 649 53 is_stmt 0 view .LVU666
 2335 00aa 244B     		ldr	r3, .L209+36
 2336              	.L204:
 657:Src/main.c    **** 		}
 2337              		.loc 1 657 53 view .LVU667
 2338 00ac 1B78     		ldrb	r3, [r3]
 2339 00ae 5942     		rsbs	r1, r3, #0
 2340 00b0 4B41     		adcs	r3, r3, r1
 2341 00b2 F1E7     		b	.L205
 2342              	.L175:
 655:Src/main.c    **** 		if (tempertureHideTime > TEMPERTURE_MAX_HIDE_TIME) {
 2343              		.loc 1 655 3 is_stmt 1 view .LVU668
 655:Src/main.c    **** 		if (tempertureHideTime > TEMPERTURE_MAX_HIDE_TIME) {
 2344              		.loc 1 655 21 is_stmt 0 view .LVU669
 2345 00b4 214A     		ldr	r2, .L209+36
 2346 00b6 1378     		ldrb	r3, [r2]
 2347 00b8 0133     		adds	r3, r3, #1
 2348 00ba DBB2     		uxtb	r3, r3
 2349 00bc 1370     		strb	r3, [r2]
 656:Src/main.c    **** 			tempertureHideTime = tempertureShowTime == 0 ? 1 : 0;
 2350              		.loc 1 656 3 is_stmt 1 view .LVU670
 656:Src/main.c    **** 			tempertureHideTime = tempertureShowTime == 0 ? 1 : 0;
 2351              		.loc 1 656 6 is_stmt 0 view .LVU671
 2352 00be 1E2B     		cmp	r3, #30
 2353 00c0 CAD9     		bls	.L201
 657:Src/main.c    **** 		}
 2354              		.loc 1 657 4 is_stmt 1 view .LVU672
 657:Src/main.c    **** 		}
 2355              		.loc 1 657 53 is_stmt 0 view .LVU673
 2356 00c2 1D4B     		ldr	r3, .L209+32
 2357 00c4 F2E7     		b	.L204
 2358              	.L174:
 663:Src/main.c    **** 		if (savedBrightness > 8) {
 2359              		.loc 1 663 3 is_stmt 1 view .LVU674
 663:Src/main.c    **** 		if (savedBrightness > 8) {
 2360              		.loc 1 663 18 is_stmt 0 view .LVU675
 2361 00c6 1E4A     		ldr	r2, .L209+40
 2362 00c8 1378     		ldrb	r3, [r2]
 2363 00ca 0133     		adds	r3, r3, #1
 2364 00cc DBB2     		uxtb	r3, r3
 664:Src/main.c    **** 			savedBrightness = 0;
 2365              		.loc 1 664 3 is_stmt 1 view .LVU676
 664:Src/main.c    **** 			savedBrightness = 0;
 2366              		.loc 1 664 6 is_stmt 0 view .LVU677
 2367 00ce 082B     		cmp	r3, #8
 2368 00d0 00D9     		bls	.L190
 2369 00d2 0023     		movs	r3, #0
 2370              	.L190:
 663:Src/main.c    **** 		if (savedBrightness > 8) {
ARM GAS  D:\Temp\ccpUgK8Y.s 			page 63


 2371              		.loc 1 663 18 view .LVU678
 2372 00d4 1370     		strb	r3, [r2]
 667:Src/main.c    **** 		blinkControl = 0;
 2373              		.loc 1 667 3 is_stmt 1 view .LVU679
 667:Src/main.c    **** 		blinkControl = 0;
 2374              		.loc 1 667 3 is_stmt 0 discriminator 4 view .LVU680
 2375 00d6 181C     		adds	r0, r3, #0
 2376 00d8 002B     		cmp	r3, #0
 2377 00da 00D1     		bne	.L191
 2378 00dc 0120     		movs	r0, #1
 2379              	.L191:
 2380 00de C0B2     		uxtb	r0, r0
 2381 00e0 FFF7FEFF 		bl	TM1637SetBrightness
 2382              	.LVL144:
 668:Src/main.c    **** 		refreshSettingsDisplay();
 2383              		.loc 1 668 3 is_stmt 1 view .LVU681
 2384 00e4 B8E7     		b	.L201
 2385              	.L173:
 672:Src/main.c    **** 		if (strongBrightness > 8) {
 2386              		.loc 1 672 3 view .LVU682
 672:Src/main.c    **** 		if (strongBrightness > 8) {
 2387              		.loc 1 672 19 is_stmt 0 view .LVU683
 2388 00e6 174B     		ldr	r3, .L209+44
 2389              	.L208:
 681:Src/main.c    **** 		if (weakBrightness > 8) {
 2390              		.loc 1 681 17 view .LVU684
 2391 00e8 1878     		ldrb	r0, [r3]
 2392 00ea 0130     		adds	r0, r0, #1
 2393 00ec C0B2     		uxtb	r0, r0
 682:Src/main.c    **** 			weakBrightness = 1;
 2394              		.loc 1 682 3 is_stmt 1 view .LVU685
 682:Src/main.c    **** 			weakBrightness = 1;
 2395              		.loc 1 682 6 is_stmt 0 view .LVU686
 2396 00ee 0828     		cmp	r0, #8
 2397 00f0 00D9     		bls	.L193
 2398 00f2 0120     		movs	r0, #1
 2399              	.L193:
 685:Src/main.c    **** 		TM1637SetBrightness(weakBrightness);
 2400              		.loc 1 685 16 view .LVU687
 2401 00f4 0022     		movs	r2, #0
 681:Src/main.c    **** 		if (weakBrightness > 8) {
 2402              		.loc 1 681 17 view .LVU688
 2403 00f6 1870     		strb	r0, [r3]
 685:Src/main.c    **** 		TM1637SetBrightness(weakBrightness);
 2404              		.loc 1 685 3 is_stmt 1 view .LVU689
 685:Src/main.c    **** 		TM1637SetBrightness(weakBrightness);
 2405              		.loc 1 685 16 is_stmt 0 view .LVU690
 2406 00f8 0B4B     		ldr	r3, .L209+16
 2407 00fa 1A70     		strb	r2, [r3]
 686:Src/main.c    **** 		refreshSettingsDisplay();
 2408              		.loc 1 686 3 is_stmt 1 view .LVU691
 2409 00fc FFF7FEFF 		bl	TM1637SetBrightness
 2410              	.LVL145:
 687:Src/main.c    **** 	}
 2411              		.loc 1 687 3 view .LVU692
 2412              	.L200:
 692:Src/main.c    **** 	}
ARM GAS  D:\Temp\ccpUgK8Y.s 			page 64


 2413              		.loc 1 692 3 view .LVU693
 2414 0100 FFF7FEFF 		bl	refreshSettingsDisplay
 2415              	.LVL146:
 2416 0104 83E7     		b	.L165
 2417              	.L172:
 681:Src/main.c    **** 		if (weakBrightness > 8) {
 2418              		.loc 1 681 3 view .LVU694
 681:Src/main.c    **** 		if (weakBrightness > 8) {
 2419              		.loc 1 681 17 is_stmt 0 view .LVU695
 2420 0106 104B     		ldr	r3, .L209+48
 2421 0108 EEE7     		b	.L208
 2422              	.L171:
 690:Src/main.c    **** 		blinkControl = 0;
 2423              		.loc 1 690 3 is_stmt 1 view .LVU696
 690:Src/main.c    **** 		blinkControl = 0;
 2424              		.loc 1 690 23 is_stmt 0 view .LVU697
 2425 010a 104A     		ldr	r2, .L209+52
 2426 010c B2E7     		b	.L202
 2427              	.L170:
 695:Src/main.c    **** 		if (ringOnTimeStart > 23) {
 2428              		.loc 1 695 3 is_stmt 1 view .LVU698
 695:Src/main.c    **** 		if (ringOnTimeStart > 23) {
 2429              		.loc 1 695 18 is_stmt 0 view .LVU699
 2430 010e 104A     		ldr	r2, .L209+56
 2431 0110 B5E7     		b	.L203
 2432              	.L168:
 703:Src/main.c    **** 		if (ringOnTimeStop > 23) {
 2433              		.loc 1 703 3 is_stmt 1 view .LVU700
 703:Src/main.c    **** 		if (ringOnTimeStop > 23) {
 2434              		.loc 1 703 17 is_stmt 0 view .LVU701
 2435 0112 104A     		ldr	r2, .L209+60
 2436 0114 B3E7     		b	.L203
 2437              	.L210:
 2438 0116 C046     		.align	2
 2439              	.L209:
 2440 0118 00000000 		.word	isAlarming
 2441 011c 00000000 		.word	currentMode
 2442 0120 00000000 		.word	lastDisplayChangeTime
 2443 0124 00000000 		.word	lastTime
 2444 0128 00000000 		.word	blinkControl
 2445 012c 00000000 		.word	isAlarmEnabled
 2446 0130 00000000 		.word	alarmHour
 2447 0134 00000000 		.word	alarmMin
 2448 0138 00000000 		.word	tempertureShowTime
 2449 013c 00000000 		.word	tempertureHideTime
 2450 0140 00000000 		.word	savedBrightness
 2451 0144 00000000 		.word	strongBrightness
 2452 0148 00000000 		.word	weakBrightness
 2453 014c 00000000 		.word	isRingOnTimeEnabled
 2454 0150 00000000 		.word	ringOnTimeStart
 2455 0154 00000000 		.word	ringOnTimeStop
 2456              		.cfi_endproc
 2457              	.LFE50:
 2459              		.section	.text.setKeyPresseRepeatReport,"ax",%progbits
 2460              		.align	1
 2461              		.global	setKeyPresseRepeatReport
 2462              		.syntax unified
ARM GAS  D:\Temp\ccpUgK8Y.s 			page 65


 2463              		.code	16
 2464              		.thumb_func
 2466              	setKeyPresseRepeatReport:
 2467              	.LFB51:
 711:Src/main.c    **** 
 712:Src/main.c    **** void setKeyPresseRepeatReport() {
 2468              		.loc 1 712 33 is_stmt 1 view -0
 2469              		.cfi_startproc
 2470              		@ args = 0, pretend = 0, frame = 0
 2471              		@ frame_needed = 0, uses_anonymous_args = 0
 713:Src/main.c    **** 	setKeyRepeatReported = true;
 2472              		.loc 1 713 2 view .LVU703
 2473              		.loc 1 713 23 is_stmt 0 view .LVU704
 2474 0000 0122     		movs	r2, #1
 712:Src/main.c    **** 	setKeyRepeatReported = true;
 2475              		.loc 1 712 33 view .LVU705
 2476 0002 10B5     		push	{r4, lr}
 2477              	.LCFI13:
 2478              		.cfi_def_cfa_offset 8
 2479              		.cfi_offset 4, -8
 2480              		.cfi_offset 14, -4
 2481              		.loc 1 713 23 view .LVU706
 2482 0004 274B     		ldr	r3, .L233
 2483 0006 1A70     		strb	r2, [r3]
 714:Src/main.c    **** 
 715:Src/main.c    **** 	if (currentMode == MODE_SET_HOUR) {
 2484              		.loc 1 715 2 is_stmt 1 view .LVU707
 2485              		.loc 1 715 18 is_stmt 0 view .LVU708
 2486 0008 274B     		ldr	r3, .L233+4
 2487 000a 1878     		ldrb	r0, [r3]
 2488 000c 0338     		subs	r0, r0, #3
 2489 000e 0C28     		cmp	r0, #12
 2490 0010 15D8     		bhi	.L211
 2491 0012 FFF7FEFF 		bl	__gnu_thumb1_case_uqi
 2492              	.L214:
 2493 0016 07       		.byte	(.L221-.L214)/2
 2494 0017 15       		.byte	(.L220-.L214)/2
 2495 0018 14       		.byte	(.L211-.L214)/2
 2496 0019 1E       		.byte	(.L219-.L214)/2
 2497 001a 25       		.byte	(.L218-.L214)/2
 2498 001b 2E       		.byte	(.L217-.L214)/2
 2499 001c 3A       		.byte	(.L216-.L214)/2
 2500 001d 14       		.byte	(.L211-.L214)/2
 2501 001e 14       		.byte	(.L211-.L214)/2
 2502 001f 14       		.byte	(.L211-.L214)/2
 2503 0020 14       		.byte	(.L211-.L214)/2
 2504 0021 43       		.byte	(.L215-.L214)/2
 2505 0022 45       		.byte	(.L213-.L214)/2
 2506 0023 00       		.p2align 1
 2507              	.L221:
 716:Src/main.c    **** 		lastTime.hours++;
 2508              		.loc 1 716 3 is_stmt 1 view .LVU709
 2509              		.loc 1 716 11 is_stmt 0 view .LVU710
 2510 0024 214A     		ldr	r2, .L233+8
 2511              		.loc 1 716 17 view .LVU711
 2512 0026 D378     		ldrb	r3, [r2, #3]
 2513 0028 0133     		adds	r3, r3, #1
ARM GAS  D:\Temp\ccpUgK8Y.s 			page 66


 2514 002a DBB2     		uxtb	r3, r3
 717:Src/main.c    **** 		if (lastTime.hours > 23) {
 2515              		.loc 1 717 3 is_stmt 1 view .LVU712
 2516              		.loc 1 717 6 is_stmt 0 view .LVU713
 2517 002c 172B     		cmp	r3, #23
 2518 002e 00D9     		bls	.L222
 718:Src/main.c    **** 			lastTime.hours = 0;
 2519              		.loc 1 718 19 view .LVU714
 2520 0030 0023     		movs	r3, #0
 2521              	.L222:
 2522 0032 D370     		strb	r3, [r2, #3]
 719:Src/main.c    **** 		}
 720:Src/main.c    **** 		blinkControl = 0;
 2523              		.loc 1 720 3 is_stmt 1 view .LVU715
 2524              	.L225:
 721:Src/main.c    **** 		refreshSettingsDisplay();
 722:Src/main.c    **** 	}
 723:Src/main.c    **** 	else if (currentMode == MODE_SET_MINUTE) {
 724:Src/main.c    **** 		lastTime.minutes++;
 725:Src/main.c    **** 		if (lastTime.minutes > 59) {
 726:Src/main.c    **** 			lastTime.minutes = 0;
 727:Src/main.c    **** 		}
 728:Src/main.c    **** 		blinkControl = 0;
 729:Src/main.c    **** 		refreshSettingsDisplay();
 730:Src/main.c    **** 	}
 731:Src/main.c    **** 	else if (currentMode == MODE_SET_ALARM_HOUR) {
 732:Src/main.c    **** 		alarmHour++;
 733:Src/main.c    **** 		if (alarmHour > 23) {
 734:Src/main.c    **** 			alarmHour = 0;
 735:Src/main.c    **** 		}
 736:Src/main.c    **** 		blinkControl = 0;
 2525              		.loc 1 736 3 view .LVU716
 2526              		.loc 1 736 16 is_stmt 0 view .LVU717
 2527 0034 0022     		movs	r2, #0
 2528 0036 1E4B     		ldr	r3, .L233+12
 2529 0038 1A70     		strb	r2, [r3]
 737:Src/main.c    **** 		refreshSettingsDisplay();
 2530              		.loc 1 737 3 is_stmt 1 view .LVU718
 2531 003a FFF7FEFF 		bl	refreshSettingsDisplay
 2532              	.LVL147:
 2533              	.L211:
 738:Src/main.c    **** 	}
 739:Src/main.c    **** 	else if (currentMode == MODE_SET_ALARM_MINUTE) {
 740:Src/main.c    **** 		alarmMin++;
 741:Src/main.c    **** 		if (alarmMin > 59) {
 742:Src/main.c    **** 			alarmMin = 0;
 743:Src/main.c    **** 		}
 744:Src/main.c    **** 		blinkControl = 0;
 745:Src/main.c    **** 		refreshSettingsDisplay();
 746:Src/main.c    **** 	}
 747:Src/main.c    **** 	else if (currentMode == MODE_SET_TEMP_SHOW) {
 748:Src/main.c    **** 		tempertureShowTime++;
 749:Src/main.c    **** 		if (tempertureShowTime > TEMPERTURE_MAX_SHOW_TIME) {
 750:Src/main.c    **** 			tempertureShowTime = tempertureHideTime == 0 ? 1 : 0;
 751:Src/main.c    **** 		}
 752:Src/main.c    **** 		blinkControl = 0;
 753:Src/main.c    **** 		refreshSettingsDisplay();
ARM GAS  D:\Temp\ccpUgK8Y.s 			page 67


 754:Src/main.c    **** 	}
 755:Src/main.c    **** 	else if (currentMode == MODE_SET_TEMP_HIDE) {
 756:Src/main.c    **** 		tempertureHideTime++;
 757:Src/main.c    **** 		if (tempertureHideTime > TEMPERTURE_MAX_HIDE_TIME) {
 758:Src/main.c    **** 			tempertureHideTime = tempertureShowTime == 0 ? 1 : 0;
 759:Src/main.c    **** 		}
 760:Src/main.c    **** 		blinkControl = 0;
 761:Src/main.c    **** 		refreshSettingsDisplay();
 762:Src/main.c    **** 	}
 763:Src/main.c    **** 	else if (currentMode == MODE_SET_ROT_START) {
 764:Src/main.c    **** 		ringOnTimeStart++;
 765:Src/main.c    **** 		if (ringOnTimeStart > 23) {
 766:Src/main.c    **** 			ringOnTimeStart = 0;
 767:Src/main.c    **** 		}
 768:Src/main.c    **** 		blinkControl = 0;
 769:Src/main.c    **** 		refreshSettingsDisplay();
 770:Src/main.c    **** 	}
 771:Src/main.c    **** 	else if (currentMode == MODE_SET_ROT_STOP) {
 772:Src/main.c    **** 		ringOnTimeStop++;
 773:Src/main.c    **** 		if (ringOnTimeStop > 23) {
 774:Src/main.c    **** 			ringOnTimeStop = 0;
 775:Src/main.c    **** 		}
 776:Src/main.c    **** 		blinkControl = 0;
 777:Src/main.c    **** 		refreshSettingsDisplay();
 778:Src/main.c    **** 	}
 779:Src/main.c    **** }
 2534              		.loc 1 779 1 is_stmt 0 view .LVU719
 2535              		@ sp needed
 2536 003e 10BD     		pop	{r4, pc}
 2537              	.L220:
 724:Src/main.c    **** 		if (lastTime.minutes > 59) {
 2538              		.loc 1 724 3 is_stmt 1 view .LVU720
 724:Src/main.c    **** 		if (lastTime.minutes > 59) {
 2539              		.loc 1 724 11 is_stmt 0 view .LVU721
 2540 0040 1A4A     		ldr	r2, .L233+8
 724:Src/main.c    **** 		if (lastTime.minutes > 59) {
 2541              		.loc 1 724 19 view .LVU722
 2542 0042 5378     		ldrb	r3, [r2, #1]
 2543 0044 0133     		adds	r3, r3, #1
 2544 0046 DBB2     		uxtb	r3, r3
 725:Src/main.c    **** 			lastTime.minutes = 0;
 2545              		.loc 1 725 3 is_stmt 1 view .LVU723
 725:Src/main.c    **** 			lastTime.minutes = 0;
 2546              		.loc 1 725 6 is_stmt 0 view .LVU724
 2547 0048 3B2B     		cmp	r3, #59
 2548 004a 00D9     		bls	.L223
 726:Src/main.c    **** 		}
 2549              		.loc 1 726 21 view .LVU725
 2550 004c 0023     		movs	r3, #0
 2551              	.L223:
 2552 004e 5370     		strb	r3, [r2, #1]
 728:Src/main.c    **** 		refreshSettingsDisplay();
 2553              		.loc 1 728 3 is_stmt 1 view .LVU726
 2554 0050 F0E7     		b	.L225
 2555              	.L219:
 732:Src/main.c    **** 		if (alarmHour > 23) {
 2556              		.loc 1 732 3 view .LVU727
ARM GAS  D:\Temp\ccpUgK8Y.s 			page 68


 732:Src/main.c    **** 		if (alarmHour > 23) {
 2557              		.loc 1 732 12 is_stmt 0 view .LVU728
 2558 0052 184A     		ldr	r2, .L233+16
 2559              	.L231:
 764:Src/main.c    **** 		if (ringOnTimeStart > 23) {
 2560              		.loc 1 764 18 view .LVU729
 2561 0054 1378     		ldrb	r3, [r2]
 2562 0056 0133     		adds	r3, r3, #1
 2563 0058 DBB2     		uxtb	r3, r3
 765:Src/main.c    **** 			ringOnTimeStart = 0;
 2564              		.loc 1 765 3 is_stmt 1 view .LVU730
 765:Src/main.c    **** 			ringOnTimeStart = 0;
 2565              		.loc 1 765 6 is_stmt 0 view .LVU731
 2566 005a 172B     		cmp	r3, #23
 2567 005c 06D8     		bhi	.L224
 2568 005e 06E0     		b	.L230
 2569              	.L218:
 740:Src/main.c    **** 		if (alarmMin > 59) {
 2570              		.loc 1 740 3 is_stmt 1 view .LVU732
 740:Src/main.c    **** 		if (alarmMin > 59) {
 2571              		.loc 1 740 11 is_stmt 0 view .LVU733
 2572 0060 154A     		ldr	r2, .L233+20
 2573 0062 1378     		ldrb	r3, [r2]
 2574 0064 0133     		adds	r3, r3, #1
 2575 0066 DBB2     		uxtb	r3, r3
 741:Src/main.c    **** 			alarmMin = 0;
 2576              		.loc 1 741 3 is_stmt 1 view .LVU734
 741:Src/main.c    **** 			alarmMin = 0;
 2577              		.loc 1 741 6 is_stmt 0 view .LVU735
 2578 0068 3B2B     		cmp	r3, #59
 2579 006a 00D9     		bls	.L230
 2580              	.L224:
 734:Src/main.c    **** 		}
 2581              		.loc 1 734 4 is_stmt 1 view .LVU736
 734:Src/main.c    **** 		}
 2582              		.loc 1 734 14 is_stmt 0 view .LVU737
 2583 006c 0023     		movs	r3, #0
 2584              	.L230:
 2585 006e 1370     		strb	r3, [r2]
 2586 0070 E0E7     		b	.L225
 2587              	.L217:
 748:Src/main.c    **** 		if (tempertureShowTime > TEMPERTURE_MAX_SHOW_TIME) {
 2588              		.loc 1 748 3 is_stmt 1 view .LVU738
 748:Src/main.c    **** 		if (tempertureShowTime > TEMPERTURE_MAX_SHOW_TIME) {
 2589              		.loc 1 748 21 is_stmt 0 view .LVU739
 2590 0072 124A     		ldr	r2, .L233+24
 2591 0074 1378     		ldrb	r3, [r2]
 2592 0076 0133     		adds	r3, r3, #1
 2593 0078 DBB2     		uxtb	r3, r3
 2594 007a 1370     		strb	r3, [r2]
 749:Src/main.c    **** 			tempertureShowTime = tempertureHideTime == 0 ? 1 : 0;
 2595              		.loc 1 749 3 is_stmt 1 view .LVU740
 749:Src/main.c    **** 			tempertureShowTime = tempertureHideTime == 0 ? 1 : 0;
 2596              		.loc 1 749 6 is_stmt 0 view .LVU741
 2597 007c 0F2B     		cmp	r3, #15
 2598 007e D9D9     		bls	.L225
 750:Src/main.c    **** 		}
ARM GAS  D:\Temp\ccpUgK8Y.s 			page 69


 2599              		.loc 1 750 4 is_stmt 1 view .LVU742
 750:Src/main.c    **** 		}
 2600              		.loc 1 750 53 is_stmt 0 view .LVU743
 2601 0080 0F4B     		ldr	r3, .L233+28
 2602              	.L232:
 758:Src/main.c    **** 		}
 2603              		.loc 1 758 53 view .LVU744
 2604 0082 1B78     		ldrb	r3, [r3]
 2605 0084 5942     		rsbs	r1, r3, #0
 2606 0086 4B41     		adcs	r3, r3, r1
 2607 0088 F1E7     		b	.L230
 2608              	.L216:
 756:Src/main.c    **** 		if (tempertureHideTime > TEMPERTURE_MAX_HIDE_TIME) {
 2609              		.loc 1 756 3 is_stmt 1 view .LVU745
 756:Src/main.c    **** 		if (tempertureHideTime > TEMPERTURE_MAX_HIDE_TIME) {
 2610              		.loc 1 756 21 is_stmt 0 view .LVU746
 2611 008a 0D4A     		ldr	r2, .L233+28
 2612 008c 1378     		ldrb	r3, [r2]
 2613 008e 0133     		adds	r3, r3, #1
 2614 0090 DBB2     		uxtb	r3, r3
 2615 0092 1370     		strb	r3, [r2]
 757:Src/main.c    **** 			tempertureHideTime = tempertureShowTime == 0 ? 1 : 0;
 2616              		.loc 1 757 3 is_stmt 1 view .LVU747
 757:Src/main.c    **** 			tempertureHideTime = tempertureShowTime == 0 ? 1 : 0;
 2617              		.loc 1 757 6 is_stmt 0 view .LVU748
 2618 0094 1E2B     		cmp	r3, #30
 2619 0096 CDD9     		bls	.L225
 758:Src/main.c    **** 		}
 2620              		.loc 1 758 4 is_stmt 1 view .LVU749
 758:Src/main.c    **** 		}
 2621              		.loc 1 758 53 is_stmt 0 view .LVU750
 2622 0098 084B     		ldr	r3, .L233+24
 2623 009a F2E7     		b	.L232
 2624              	.L215:
 764:Src/main.c    **** 		if (ringOnTimeStart > 23) {
 2625              		.loc 1 764 3 is_stmt 1 view .LVU751
 764:Src/main.c    **** 		if (ringOnTimeStart > 23) {
 2626              		.loc 1 764 18 is_stmt 0 view .LVU752
 2627 009c 094A     		ldr	r2, .L233+32
 2628 009e D9E7     		b	.L231
 2629              	.L213:
 772:Src/main.c    **** 		if (ringOnTimeStop > 23) {
 2630              		.loc 1 772 3 is_stmt 1 view .LVU753
 772:Src/main.c    **** 		if (ringOnTimeStop > 23) {
 2631              		.loc 1 772 17 is_stmt 0 view .LVU754
 2632 00a0 094A     		ldr	r2, .L233+36
 2633 00a2 D7E7     		b	.L231
 2634              	.L234:
 2635              		.align	2
 2636              	.L233:
 2637 00a4 00000000 		.word	setKeyRepeatReported
 2638 00a8 00000000 		.word	currentMode
 2639 00ac 00000000 		.word	lastTime
 2640 00b0 00000000 		.word	blinkControl
 2641 00b4 00000000 		.word	alarmHour
 2642 00b8 00000000 		.word	alarmMin
 2643 00bc 00000000 		.word	tempertureShowTime
ARM GAS  D:\Temp\ccpUgK8Y.s 			page 70


 2644 00c0 00000000 		.word	tempertureHideTime
 2645 00c4 00000000 		.word	ringOnTimeStart
 2646 00c8 00000000 		.word	ringOnTimeStop
 2647              		.cfi_endproc
 2648              	.LFE51:
 2650              		.section	.text.setKeyPressed,"ax",%progbits
 2651              		.align	1
 2652              		.global	setKeyPressed
 2653              		.syntax unified
 2654              		.code	16
 2655              		.thumb_func
 2657              	setKeyPressed:
 2658              	.LFB52:
 780:Src/main.c    **** 
 781:Src/main.c    **** void setKeyPressed(){
 2659              		.loc 1 781 21 is_stmt 1 view -0
 2660              		.cfi_startproc
 2661              		@ args = 0, pretend = 0, frame = 0
 2662              		@ frame_needed = 0, uses_anonymous_args = 0
 782:Src/main.c    **** 	lastSetKeyPressTime = HAL_GetTick();
 2663              		.loc 1 782 2 view .LVU756
 781:Src/main.c    **** 	lastSetKeyPressTime = HAL_GetTick();
 2664              		.loc 1 781 21 is_stmt 0 view .LVU757
 2665 0000 10B5     		push	{r4, lr}
 2666              	.LCFI14:
 2667              		.cfi_def_cfa_offset 8
 2668              		.cfi_offset 4, -8
 2669              		.cfi_offset 14, -4
 2670              		.loc 1 782 24 view .LVU758
 2671 0002 FFF7FEFF 		bl	HAL_GetTick
 2672              	.LVL148:
 783:Src/main.c    **** }
 2673              		.loc 1 783 1 view .LVU759
 2674              		@ sp needed
 782:Src/main.c    **** 	lastSetKeyPressTime = HAL_GetTick();
 2675              		.loc 1 782 22 discriminator 1 view .LVU760
 2676 0006 014B     		ldr	r3, .L236
 2677 0008 1860     		str	r0, [r3]
 2678              		.loc 1 783 1 view .LVU761
 2679 000a 10BD     		pop	{r4, pc}
 2680              	.L237:
 2681              		.align	2
 2682              	.L236:
 2683 000c 00000000 		.word	lastSetKeyPressTime
 2684              		.cfi_endproc
 2685              	.LFE52:
 2687              		.section	.text.setKeyReleased,"ax",%progbits
 2688              		.align	1
 2689              		.global	setKeyReleased
 2690              		.syntax unified
 2691              		.code	16
 2692              		.thumb_func
 2694              	setKeyReleased:
 2695              	.LFB53:
 784:Src/main.c    **** 
 785:Src/main.c    **** void setKeyReleased() {
 2696              		.loc 1 785 23 is_stmt 1 view -0
ARM GAS  D:\Temp\ccpUgK8Y.s 			page 71


 2697              		.cfi_startproc
 2698              		@ args = 0, pretend = 0, frame = 0
 2699              		@ frame_needed = 0, uses_anonymous_args = 0
 786:Src/main.c    **** 	uint32_t currentVal = HAL_GetTick();
 2700              		.loc 1 786 2 view .LVU763
 785:Src/main.c    **** 	uint32_t currentVal = HAL_GetTick();
 2701              		.loc 1 785 23 is_stmt 0 view .LVU764
 2702 0000 10B5     		push	{r4, lr}
 2703              	.LCFI15:
 2704              		.cfi_def_cfa_offset 8
 2705              		.cfi_offset 4, -8
 2706              		.cfi_offset 14, -4
 2707              		.loc 1 786 24 view .LVU765
 2708 0002 FFF7FEFF 		bl	HAL_GetTick
 2709              	.LVL149:
 787:Src/main.c    **** 	if (lastSetKeyPressTime > currentVal) {
 2710              		.loc 1 787 2 is_stmt 1 view .LVU766
 2711              		.loc 1 787 26 is_stmt 0 view .LVU767
 2712 0006 084B     		ldr	r3, .L245
 2713 0008 084C     		ldr	r4, .L245+4
 2714 000a 1B68     		ldr	r3, [r3]
 2715              		.loc 1 787 5 view .LVU768
 2716 000c 8342     		cmp	r3, r0
 2717 000e 04D9     		bls	.L239
 2718              	.LVL150:
 2719              	.L241:
 788:Src/main.c    **** 		setKeyClicked();
 2720              		.loc 1 788 3 is_stmt 1 view .LVU769
 2721 0010 FFF7FEFF 		bl	setKeyClicked
 2722              	.LVL151:
 2723              	.L240:
 789:Src/main.c    **** 	}
 790:Src/main.c    **** 	else if (currentVal - lastSetKeyPressTime > KEY_CLICK_EFFECT_TIME && !setKeyRepeatReported) {
 791:Src/main.c    **** 		setKeyClicked();
 792:Src/main.c    **** 	}
 793:Src/main.c    **** 	setKeyRepeatReported = false;
 2724              		.loc 1 793 2 view .LVU770
 794:Src/main.c    **** }
 2725              		.loc 1 794 1 is_stmt 0 view .LVU771
 2726              		@ sp needed
 793:Src/main.c    **** }
 2727              		.loc 1 793 23 view .LVU772
 2728 0014 0023     		movs	r3, #0
 2729 0016 2370     		strb	r3, [r4]
 2730              		.loc 1 794 1 view .LVU773
 2731 0018 10BD     		pop	{r4, pc}
 2732              	.LVL152:
 2733              	.L239:
 790:Src/main.c    **** 		setKeyClicked();
 2734              		.loc 1 790 7 is_stmt 1 view .LVU774
 790:Src/main.c    **** 		setKeyClicked();
 2735              		.loc 1 790 22 is_stmt 0 view .LVU775
 2736 001a C01A     		subs	r0, r0, r3
 2737              	.LVL153:
 790:Src/main.c    **** 		setKeyClicked();
 2738              		.loc 1 790 10 view .LVU776
 2739 001c 3228     		cmp	r0, #50
ARM GAS  D:\Temp\ccpUgK8Y.s 			page 72


 2740 001e F9D9     		bls	.L240
 790:Src/main.c    **** 		setKeyClicked();
 2741              		.loc 1 790 68 discriminator 1 view .LVU777
 2742 0020 2378     		ldrb	r3, [r4]
 2743 0022 002B     		cmp	r3, #0
 2744 0024 F6D1     		bne	.L240
 2745 0026 F3E7     		b	.L241
 2746              	.L246:
 2747              		.align	2
 2748              	.L245:
 2749 0028 00000000 		.word	lastSetKeyPressTime
 2750 002c 00000000 		.word	setKeyRepeatReported
 2751              		.cfi_endproc
 2752              	.LFE53:
 2754              		.section	.text.modeKeyPressed,"ax",%progbits
 2755              		.align	1
 2756              		.global	modeKeyPressed
 2757              		.syntax unified
 2758              		.code	16
 2759              		.thumb_func
 2761              	modeKeyPressed:
 2762              	.LFB54:
 795:Src/main.c    **** 
 796:Src/main.c    **** void modeKeyPressed(){
 2763              		.loc 1 796 22 is_stmt 1 view -0
 2764              		.cfi_startproc
 2765              		@ args = 0, pretend = 0, frame = 0
 2766              		@ frame_needed = 0, uses_anonymous_args = 0
 797:Src/main.c    **** 	lastModeKeyPressTime = HAL_GetTick();
 2767              		.loc 1 797 2 view .LVU779
 796:Src/main.c    **** 	lastModeKeyPressTime = HAL_GetTick();
 2768              		.loc 1 796 22 is_stmt 0 view .LVU780
 2769 0000 10B5     		push	{r4, lr}
 2770              	.LCFI16:
 2771              		.cfi_def_cfa_offset 8
 2772              		.cfi_offset 4, -8
 2773              		.cfi_offset 14, -4
 2774              		.loc 1 797 25 view .LVU781
 2775 0002 FFF7FEFF 		bl	HAL_GetTick
 2776              	.LVL154:
 798:Src/main.c    **** }
 2777              		.loc 1 798 1 view .LVU782
 2778              		@ sp needed
 797:Src/main.c    **** 	lastModeKeyPressTime = HAL_GetTick();
 2779              		.loc 1 797 23 discriminator 1 view .LVU783
 2780 0006 014B     		ldr	r3, .L248
 2781 0008 1860     		str	r0, [r3]
 2782              		.loc 1 798 1 view .LVU784
 2783 000a 10BD     		pop	{r4, pc}
 2784              	.L249:
 2785              		.align	2
 2786              	.L248:
 2787 000c 00000000 		.word	lastModeKeyPressTime
 2788              		.cfi_endproc
 2789              	.LFE54:
 2791              		.section	.text.modeKeyReleased,"ax",%progbits
 2792              		.align	1
ARM GAS  D:\Temp\ccpUgK8Y.s 			page 73


 2793              		.global	modeKeyReleased
 2794              		.syntax unified
 2795              		.code	16
 2796              		.thumb_func
 2798              	modeKeyReleased:
 2799              	.LFB55:
 799:Src/main.c    **** 
 800:Src/main.c    **** void modeKeyReleased(){
 2800              		.loc 1 800 23 is_stmt 1 view -0
 2801              		.cfi_startproc
 2802              		@ args = 0, pretend = 0, frame = 0
 2803              		@ frame_needed = 0, uses_anonymous_args = 0
 801:Src/main.c    **** 	uint32_t currentVal = HAL_GetTick();
 2804              		.loc 1 801 2 view .LVU786
 800:Src/main.c    **** 	uint32_t currentVal = HAL_GetTick();
 2805              		.loc 1 800 23 is_stmt 0 view .LVU787
 2806 0000 10B5     		push	{r4, lr}
 2807              	.LCFI17:
 2808              		.cfi_def_cfa_offset 8
 2809              		.cfi_offset 4, -8
 2810              		.cfi_offset 14, -4
 2811              		.loc 1 801 24 view .LVU788
 2812 0002 FFF7FEFF 		bl	HAL_GetTick
 2813              	.LVL155:
 802:Src/main.c    **** 	if(lastModeKeyPressTime > currentVal)
 2814              		.loc 1 802 2 is_stmt 1 view .LVU789
 2815              		.loc 1 802 26 is_stmt 0 view .LVU790
 2816 0006 094B     		ldr	r3, .L255
 2817 0008 1B68     		ldr	r3, [r3]
 2818              		.loc 1 802 4 view .LVU791
 2819 000a 8342     		cmp	r3, r0
 2820 000c 02D9     		bls	.L251
 2821              	.LVL156:
 2822              	.L254:
 803:Src/main.c    **** 	{
 804:Src/main.c    **** 		modeKeyClicked();
 2823              		.loc 1 804 3 is_stmt 1 view .LVU792
 2824 000e FFF7FEFF 		bl	modeKeyClicked
 2825              	.LVL157:
 2826              	.L250:
 805:Src/main.c    **** 	}
 806:Src/main.c    **** 	else if(currentVal - lastModeKeyPressTime > KEY_LONG_PRESS_EFFECT_TIME)
 807:Src/main.c    **** 	{
 808:Src/main.c    **** 		modeKeyLongPressed();
 809:Src/main.c    **** 	}
 810:Src/main.c    **** 	else if(currentVal - lastModeKeyPressTime > KEY_CLICK_EFFECT_TIME)
 811:Src/main.c    **** 	{
 812:Src/main.c    **** 		modeKeyClicked();
 813:Src/main.c    **** 	}
 814:Src/main.c    **** }
 2827              		.loc 1 814 1 is_stmt 0 view .LVU793
 2828              		@ sp needed
 2829 0012 10BD     		pop	{r4, pc}
 2830              	.LVL158:
 2831              	.L251:
 806:Src/main.c    **** 	{
 2832              		.loc 1 806 7 is_stmt 1 view .LVU794
ARM GAS  D:\Temp\ccpUgK8Y.s 			page 74


 806:Src/main.c    **** 	{
 2833              		.loc 1 806 21 is_stmt 0 view .LVU795
 2834 0014 C01A     		subs	r0, r0, r3
 2835              	.LVL159:
 806:Src/main.c    **** 	{
 2836              		.loc 1 806 9 view .LVU796
 2837 0016 C823     		movs	r3, #200
 2838 0018 9B00     		lsls	r3, r3, #2
 2839 001a 9842     		cmp	r0, r3
 2840 001c 02D9     		bls	.L253
 808:Src/main.c    **** 	}
 2841              		.loc 1 808 3 is_stmt 1 view .LVU797
 2842 001e FFF7FEFF 		bl	modeKeyLongPressed
 2843              	.LVL160:
 2844 0022 F6E7     		b	.L250
 2845              	.L253:
 810:Src/main.c    **** 	{
 2846              		.loc 1 810 7 view .LVU798
 810:Src/main.c    **** 	{
 2847              		.loc 1 810 9 is_stmt 0 view .LVU799
 2848 0024 3228     		cmp	r0, #50
 2849 0026 F4D9     		bls	.L250
 2850 0028 F1E7     		b	.L254
 2851              	.L256:
 2852 002a C046     		.align	2
 2853              	.L255:
 2854 002c 00000000 		.word	lastModeKeyPressTime
 2855              		.cfi_endproc
 2856              	.LFE55:
 2858              		.section	.text.SystemClock_Config,"ax",%progbits
 2859              		.align	1
 2860              		.global	SystemClock_Config
 2861              		.syntax unified
 2862              		.code	16
 2863              		.thumb_func
 2865              	SystemClock_Config:
 2866              	.LFB57:
 815:Src/main.c    **** /* USER CODE END 0 */
 816:Src/main.c    **** 
 817:Src/main.c    **** /**
 818:Src/main.c    ****   * @brief  The application entry point.
 819:Src/main.c    ****   * @retval int
 820:Src/main.c    ****   */
 821:Src/main.c    **** int main(void)
 822:Src/main.c    **** {
 823:Src/main.c    ****   /* USER CODE BEGIN 1 */
 824:Src/main.c    **** 
 825:Src/main.c    ****   /* USER CODE END 1 */
 826:Src/main.c    ****   
 827:Src/main.c    **** 
 828:Src/main.c    ****   /* MCU Configuration--------------------------------------------------------*/
 829:Src/main.c    **** 
 830:Src/main.c    ****   /* Reset of all peripherals, Initializes the Flash interface and the Systick. */
 831:Src/main.c    ****   HAL_Init();
 832:Src/main.c    **** 
 833:Src/main.c    ****   /* USER CODE BEGIN Init */
 834:Src/main.c    **** 
ARM GAS  D:\Temp\ccpUgK8Y.s 			page 75


 835:Src/main.c    ****   /* USER CODE END Init */
 836:Src/main.c    **** 
 837:Src/main.c    ****   /* Configure the system clock */
 838:Src/main.c    ****   SystemClock_Config();
 839:Src/main.c    **** 
 840:Src/main.c    ****   /* USER CODE BEGIN SysInit */
 841:Src/main.c    **** 
 842:Src/main.c    ****   /* USER CODE END SysInit */
 843:Src/main.c    **** 
 844:Src/main.c    ****   /* Initialize all configured peripherals */
 845:Src/main.c    ****   MX_GPIO_Init();
 846:Src/main.c    ****   MX_DMA_Init();
 847:Src/main.c    ****   MX_I2C1_Init();
 848:Src/main.c    ****   MX_ADC_Init();
 849:Src/main.c    ****   MX_TIM17_Init();
 850:Src/main.c    ****   MX_TIM3_Init();
 851:Src/main.c    ****   MX_TIM16_Init();
 852:Src/main.c    ****   /* USER CODE BEGIN 2 */
 853:Src/main.c    **** 
 854:Src/main.c    ****   // 检查是否掉电并读取所有保存的设置
 855:Src/main.c    ****   uint8_t backupData[BAK_DATA_SIZE];
 856:Src/main.c    ****   ReadBackData(BAK_POWER_DOWN_IND_INDEX, backupData, BAK_DATA_SIZE);
 857:Src/main.c    ****   if(backupData[0] != POWER_DOWN_IND_DATA && backupData[1] != POWER_DOWN_IND_DATA){
 858:Src/main.c    **** 	  // 重置时间
 859:Src/main.c    **** 	  time.year = YEAR_MIN_SET;
 860:Src/main.c    **** 	  time.month = 1;
 861:Src/main.c    **** 	  time.dayOfMonth = 1;
 862:Src/main.c    **** 	  time.dayOfWeek = 1;
 863:Src/main.c    **** 	  time.hours = 0;
 864:Src/main.c    **** 	  time.minutes = 0;
 865:Src/main.c    **** 	  time.ampm = HOUR24;
 866:Src/main.c    **** 	  time.seconds = 0;
 867:Src/main.c    **** 	  SetTime(&time);
 868:Src/main.c    **** 
 869:Src/main.c    **** 	  // 重置设置
 870:Src/main.c    **** 	  resetSettings();
 871:Src/main.c    **** 	  saveSettings();
 872:Src/main.c    ****   }else{
 873:Src/main.c    **** 	  isAlarmEnabled = backupData[BAK_ALARM_ENABLED_INDEX];
 874:Src/main.c    **** 	  alarmHour = backupData[BAK_ALARM_HOUR_INDEX];
 875:Src/main.c    **** 	  alarmMin = backupData[BAK_ALARM_MINUTE_INDEX];
 876:Src/main.c    **** 	  tempertureShowTime = backupData[BAK_TEMP_SHOW_TIME_INDEX];
 877:Src/main.c    **** 	  tempertureHideTime = backupData[BAK_TEMP_HIDE_TIME_INDEX];
 878:Src/main.c    **** 	  isRingOnTimeEnabled = backupData[BAK_ROT_ENABLED_INDEX];
 879:Src/main.c    **** 	  ringOnTimeStart = backupData[BAK_ROT_START_INDEX];
 880:Src/main.c    **** 	  ringOnTimeStop = backupData[BAK_ROT_STOP_INDEX];
 881:Src/main.c    **** 	  savedBrightness = backupData[BAK_BRIGHTNESS_INDEX];
 882:Src/main.c    **** 	  strongBrightness = backupData[BAK_BRIGHTNESS_STRONG_INDEX];
 883:Src/main.c    **** 	  weakBrightness = backupData[BAK_BRIGHTNESS_WEAK_INDEX];
 884:Src/main.c    ****   }
 885:Src/main.c    **** 
 886:Src/main.c    ****   // 数据检查
 887:Src/main.c    ****   bool hasError = false;
 888:Src/main.c    ****   if(alarmHour > (uint8_t)23 || alarmMin > (uint8_t)59){
 889:Src/main.c    **** 	  hasError = true;
 890:Src/main.c    ****   }
 891:Src/main.c    **** //  if(tempertureShowTime == 0 && tempertureHideTime == 0){
ARM GAS  D:\Temp\ccpUgK8Y.s 			page 76


 892:Src/main.c    **** //	  hasError = true;
 893:Src/main.c    **** //  }
 894:Src/main.c    ****   if(ringOnTimeStart > 23 || ringOnTimeStop > 23){
 895:Src/main.c    **** 	  hasError = true;
 896:Src/main.c    ****   }
 897:Src/main.c    ****   if(savedBrightness > 8 || strongBrightness > 8 || strongBrightness == 0 || weakBrightness > 8 || 
 898:Src/main.c    **** 	  hasError = true;
 899:Src/main.c    ****   }
 900:Src/main.c    **** 
 901:Src/main.c    ****   // 如果检查存在错误就重置设置
 902:Src/main.c    ****   if(hasError){
 903:Src/main.c    **** 	  resetSettings();
 904:Src/main.c    **** 	  saveSettings();
 905:Src/main.c    ****   }
 906:Src/main.c    **** 
 907:Src/main.c    ****   TM1637Init();
 908:Src/main.c    ****   if(savedBrightness != 0){
 909:Src/main.c    **** 	  TM1637SetBrightness(savedBrightness);
 910:Src/main.c    ****   }
 911:Src/main.c    ****   else{
 912:Src/main.c    **** 	  TM1637SetBrightness(STRONG_BRIGHTNESS_VALUE);
 913:Src/main.c    **** 	  isWeakBrightness = false;
 914:Src/main.c    ****   }
 915:Src/main.c    **** 
 916:Src/main.c    ****   HAL_ADCEx_Calibration_Start(&hadc);
 917:Src/main.c    ****   HAL_ADC_Start_DMA(&hadc, adcValue, 2);
 918:Src/main.c    ****   HAL_TIM_Base_Start(&htim3);
 919:Src/main.c    **** 
 920:Src/main.c    ****   HAL_TIM_Base_Start_IT(&LIGHT_CONTROL_TIMER_HANDLE);
 921:Src/main.c    **** 
 922:Src/main.c    ****   TimeNow(&time);
 923:Src/main.c    ****   lastRingOnTimeHour = time.hours;
 924:Src/main.c    **** 
 925:Src/main.c    ****   EnableSencodInterruptOuput();
 926:Src/main.c    **** 
 927:Src/main.c    ****   lastDisplayChangeTime = HAL_GetTick();
 928:Src/main.c    **** 
 929:Src/main.c    ****   isInitCompleted = true;
 930:Src/main.c    **** 
 931:Src/main.c    ****   /* USER CODE END 2 */
 932:Src/main.c    **** 
 933:Src/main.c    ****   /* Infinite loop */
 934:Src/main.c    ****   /* USER CODE BEGIN WHILE */
 935:Src/main.c    ****   uint32_t now = 0, passedTime;
 936:Src/main.c    ****   while (1)
 937:Src/main.c    ****   {
 938:Src/main.c    ****     /* USER CODE END WHILE */
 939:Src/main.c    **** 
 940:Src/main.c    ****     /* USER CODE BEGIN 3 */
 941:Src/main.c    **** 		if (HAL_GPIO_ReadPin(BUZZER_GPIO_PORT, BUZZER_PIN) == GPIO_PIN_RESET && !isAlarming) {
 942:Src/main.c    **** 			now = HAL_GetTick();
 943:Src/main.c    **** 			if (now < ringStartTime || (now - ringStartTime >= RING_ON_TIME_LONG)) {
 944:Src/main.c    **** 				HAL_GPIO_WritePin(BUZZER_GPIO_PORT, BUZZER_PIN, GPIO_PIN_SET);
 945:Src/main.c    **** 			}
 946:Src/main.c    **** 		}
 947:Src/main.c    **** 
 948:Src/main.c    **** 		if (tempertureShowTime > 0) {
ARM GAS  D:\Temp\ccpUgK8Y.s 			page 77


 949:Src/main.c    **** 			if (currentMode == MODE_SHOW_TIME) {
 950:Src/main.c    **** 				now = HAL_GetTick();
 951:Src/main.c    **** 				passedTime = now - lastDisplayChangeTime;
 952:Src/main.c    **** 				if (now < lastDisplayChangeTime || passedTime >= (tempertureHideTime * 1000)) {
 953:Src/main.c    **** 					currentMode = MODE_SHOW_TEMPERTURE;
 954:Src/main.c    **** 					lastDisplayChangeTime = now;
 955:Src/main.c    **** 				}
 956:Src/main.c    **** 
 957:Src/main.c    **** 			}
 958:Src/main.c    **** 			else if (currentMode == MODE_SHOW_TEMPERTURE && tempertureHideTime > 0) {
 959:Src/main.c    **** 				now = HAL_GetTick();
 960:Src/main.c    **** 				passedTime = now - lastDisplayChangeTime;
 961:Src/main.c    **** 				if (now < lastDisplayChangeTime || passedTime >= (tempertureShowTime * 1000)) {
 962:Src/main.c    **** 					currentMode = MODE_SHOW_TIME;
 963:Src/main.c    **** 					lastDisplayChangeTime = now;
 964:Src/main.c    **** 				}
 965:Src/main.c    **** 			}
 966:Src/main.c    **** 		} else if(currentMode == MODE_SHOW_TEMPERTURE){
 967:Src/main.c    **** 			currentMode = MODE_SHOW_TIME;
 968:Src/main.c    **** 			lastDisplayChangeTime = now;
 969:Src/main.c    **** 		}
 970:Src/main.c    **** 
 971:Src/main.c    **** 		if (HAL_GPIO_ReadPin(SET_KEY_GPIO_PORT, SET_KEY_PIN) == GPIO_PIN_RESET
 972:Src/main.c    **** 				&& currentMode >= MODE_SET_HOUR && currentMode <= MODE_SET_ROT_STOP) {
 973:Src/main.c    **** 				uint32_t curVal = HAL_GetTick();
 974:Src/main.c    **** 				uint32_t timePassed = curVal - lastSetKeyPressTime;
 975:Src/main.c    **** 				if (timePassed > KEY_LONG_PRESS_EFFECT_TIME) {
 976:Src/main.c    **** 					if (curVal - lastSetKeyPressReportTime > KEY_REPEAT_TIME_INTERVAL) {
 977:Src/main.c    **** 						setKeyPresseRepeatReport();
 978:Src/main.c    **** 						lastSetKeyPressReportTime = curVal;
 979:Src/main.c    **** 					}
 980:Src/main.c    **** 				}
 981:Src/main.c    **** 			}
 982:Src/main.c    **** 
 983:Src/main.c    **** 	}
 984:Src/main.c    ****   /* USER CODE END 3 */
 985:Src/main.c    **** }
 986:Src/main.c    **** 
 987:Src/main.c    **** /**
 988:Src/main.c    ****   * @brief System Clock Configuration
 989:Src/main.c    ****   * @retval None
 990:Src/main.c    ****   */
 991:Src/main.c    **** void SystemClock_Config(void)
 992:Src/main.c    **** {
 2867              		.loc 1 992 1 is_stmt 1 view -0
 2868              		.cfi_startproc
 2869              		@ args = 0, pretend = 0, frame = 80
 2870              		@ frame_needed = 0, uses_anonymous_args = 0
 993:Src/main.c    ****   RCC_OscInitTypeDef RCC_OscInitStruct = {0};
 2871              		.loc 1 993 3 view .LVU801
 992:Src/main.c    ****   RCC_OscInitTypeDef RCC_OscInitStruct = {0};
 2872              		.loc 1 992 1 is_stmt 0 view .LVU802
 2873 0000 10B5     		push	{r4, lr}
 2874              	.LCFI18:
 2875              		.cfi_def_cfa_offset 8
 2876              		.cfi_offset 4, -8
 2877              		.cfi_offset 14, -4
ARM GAS  D:\Temp\ccpUgK8Y.s 			page 78


 994:Src/main.c    ****   RCC_ClkInitTypeDef RCC_ClkInitStruct = {0};
 2878              		.loc 1 994 22 view .LVU803
 2879 0002 1024     		movs	r4, #16
 992:Src/main.c    ****   RCC_OscInitTypeDef RCC_OscInitStruct = {0};
 2880              		.loc 1 992 1 view .LVU804
 2881 0004 94B0     		sub	sp, sp, #80
 2882              	.LCFI19:
 2883              		.cfi_def_cfa_offset 88
 993:Src/main.c    ****   RCC_OscInitTypeDef RCC_OscInitStruct = {0};
 2884              		.loc 1 993 22 view .LVU805
 2885 0006 2C22     		movs	r2, #44
 2886 0008 0021     		movs	r1, #0
 2887 000a 09A8     		add	r0, sp, #36
 2888 000c FFF7FEFF 		bl	memset
 2889              	.LVL161:
 2890              		.loc 1 994 3 is_stmt 1 view .LVU806
 2891              		.loc 1 994 22 is_stmt 0 view .LVU807
 2892 0010 2200     		movs	r2, r4
 2893 0012 0021     		movs	r1, #0
 2894 0014 6846     		mov	r0, sp
 2895 0016 FFF7FEFF 		bl	memset
 2896              	.LVL162:
 995:Src/main.c    ****   RCC_PeriphCLKInitTypeDef PeriphClkInit = {0};
 2897              		.loc 1 995 3 is_stmt 1 view .LVU808
 2898              		.loc 1 995 28 is_stmt 0 view .LVU809
 2899 001a 2200     		movs	r2, r4
 2900 001c 0021     		movs	r1, #0
 2901 001e 04A8     		add	r0, sp, #16
 2902 0020 FFF7FEFF 		bl	memset
 2903              	.LVL163:
 996:Src/main.c    **** 
 997:Src/main.c    ****   /** Initializes the CPU, AHB and APB busses clocks 
 998:Src/main.c    ****   */
 999:Src/main.c    ****   RCC_OscInitStruct.OscillatorType = RCC_OSCILLATORTYPE_HSI|RCC_OSCILLATORTYPE_HSI14;
 2904              		.loc 1 999 3 is_stmt 1 view .LVU810
 2905              		.loc 1 999 36 is_stmt 0 view .LVU811
 2906 0024 1223     		movs	r3, #18
 2907 0026 0893     		str	r3, [sp, #32]
1000:Src/main.c    ****   RCC_OscInitStruct.HSIState = RCC_HSI_ON;
 2908              		.loc 1 1000 3 is_stmt 1 view .LVU812
 2909              		.loc 1 1000 30 is_stmt 0 view .LVU813
 2910 0028 113B     		subs	r3, r3, #17
 2911 002a 0B93     		str	r3, [sp, #44]
1001:Src/main.c    ****   RCC_OscInitStruct.HSI14State = RCC_HSI14_ON;
 2912              		.loc 1 1001 3 is_stmt 1 view .LVU814
 2913              		.loc 1 1001 32 is_stmt 0 view .LVU815
 2914 002c 0D93     		str	r3, [sp, #52]
1002:Src/main.c    ****   RCC_OscInitStruct.HSICalibrationValue = RCC_HSICALIBRATION_DEFAULT;
 2915              		.loc 1 1002 3 is_stmt 1 view .LVU816
1003:Src/main.c    ****   RCC_OscInitStruct.HSI14CalibrationValue = 16;
1004:Src/main.c    ****   RCC_OscInitStruct.PLL.PLLState = RCC_PLL_ON;
1005:Src/main.c    ****   RCC_OscInitStruct.PLL.PLLSource = RCC_PLLSOURCE_HSI;
1006:Src/main.c    ****   RCC_OscInitStruct.PLL.PLLMUL = RCC_PLL_MUL4;
 2916              		.loc 1 1006 32 is_stmt 0 view .LVU817
 2917 002e 8023     		movs	r3, #128
1002:Src/main.c    ****   RCC_OscInitStruct.HSICalibrationValue = RCC_HSICALIBRATION_DEFAULT;
 2918              		.loc 1 1002 41 view .LVU818
ARM GAS  D:\Temp\ccpUgK8Y.s 			page 79


 2919 0030 0C94     		str	r4, [sp, #48]
1003:Src/main.c    ****   RCC_OscInitStruct.HSI14CalibrationValue = 16;
 2920              		.loc 1 1003 3 is_stmt 1 view .LVU819
1003:Src/main.c    ****   RCC_OscInitStruct.HSI14CalibrationValue = 16;
 2921              		.loc 1 1003 43 is_stmt 0 view .LVU820
 2922 0032 0E94     		str	r4, [sp, #56]
1004:Src/main.c    ****   RCC_OscInitStruct.PLL.PLLSource = RCC_PLLSOURCE_HSI;
 2923              		.loc 1 1004 3 is_stmt 1 view .LVU821
 2924              		.loc 1 1006 32 is_stmt 0 view .LVU822
 2925 0034 1B03     		lsls	r3, r3, #12
1004:Src/main.c    ****   RCC_OscInitStruct.PLL.PLLSource = RCC_PLLSOURCE_HSI;
 2926              		.loc 1 1004 34 view .LVU823
 2927 0036 0E3C     		subs	r4, r4, #14
1007:Src/main.c    ****   RCC_OscInitStruct.PLL.PREDIV = RCC_PREDIV_DIV1;
1008:Src/main.c    ****   if (HAL_RCC_OscConfig(&RCC_OscInitStruct) != HAL_OK)
 2928              		.loc 1 1008 7 view .LVU824
 2929 0038 08A8     		add	r0, sp, #32
1004:Src/main.c    ****   RCC_OscInitStruct.PLL.PLLSource = RCC_PLLSOURCE_HSI;
 2930              		.loc 1 1004 34 view .LVU825
 2931 003a 1094     		str	r4, [sp, #64]
1005:Src/main.c    ****   RCC_OscInitStruct.PLL.PLLMUL = RCC_PLL_MUL4;
 2932              		.loc 1 1005 3 is_stmt 1 view .LVU826
1006:Src/main.c    ****   RCC_OscInitStruct.PLL.PREDIV = RCC_PREDIV_DIV1;
 2933              		.loc 1 1006 3 view .LVU827
1006:Src/main.c    ****   RCC_OscInitStruct.PLL.PREDIV = RCC_PREDIV_DIV1;
 2934              		.loc 1 1006 32 is_stmt 0 view .LVU828
 2935 003c 1293     		str	r3, [sp, #72]
1007:Src/main.c    ****   RCC_OscInitStruct.PLL.PREDIV = RCC_PREDIV_DIV1;
 2936              		.loc 1 1007 3 is_stmt 1 view .LVU829
 2937              		.loc 1 1008 3 view .LVU830
 2938              		.loc 1 1008 7 is_stmt 0 view .LVU831
 2939 003e FFF7FEFF 		bl	HAL_RCC_OscConfig
 2940              	.LVL164:
1009:Src/main.c    ****   {
1010:Src/main.c    ****     Error_Handler();
 2941              		.loc 1 1010 5 is_stmt 1 view .LVU832
1011:Src/main.c    ****   }
1012:Src/main.c    ****   /** Initializes the CPU, AHB and APB busses clocks 
1013:Src/main.c    ****   */
1014:Src/main.c    ****   RCC_ClkInitStruct.ClockType = RCC_CLOCKTYPE_HCLK|RCC_CLOCKTYPE_SYSCLK
 2942              		.loc 1 1014 3 view .LVU833
1015:Src/main.c    ****                               |RCC_CLOCKTYPE_PCLK1;
1016:Src/main.c    ****   RCC_ClkInitStruct.SYSCLKSource = RCC_SYSCLKSOURCE_PLLCLK;
 2943              		.loc 1 1016 34 is_stmt 0 view .LVU834
 2944 0042 0194     		str	r4, [sp, #4]
1017:Src/main.c    ****   RCC_ClkInitStruct.AHBCLKDivider = RCC_SYSCLK_DIV1;
 2945              		.loc 1 1017 35 view .LVU835
 2946 0044 0024     		movs	r4, #0
1014:Src/main.c    ****                               |RCC_CLOCKTYPE_PCLK1;
 2947              		.loc 1 1014 31 view .LVU836
 2948 0046 0723     		movs	r3, #7
1018:Src/main.c    ****   RCC_ClkInitStruct.APB1CLKDivider = RCC_HCLK_DIV1;
1019:Src/main.c    **** 
1020:Src/main.c    ****   if (HAL_RCC_ClockConfig(&RCC_ClkInitStruct, FLASH_LATENCY_0) != HAL_OK)
 2949              		.loc 1 1020 7 view .LVU837
 2950 0048 2100     		movs	r1, r4
 2951 004a 6846     		mov	r0, sp
ARM GAS  D:\Temp\ccpUgK8Y.s 			page 80


1014:Src/main.c    ****                               |RCC_CLOCKTYPE_PCLK1;
 2952              		.loc 1 1014 31 view .LVU838
 2953 004c 0093     		str	r3, [sp]
1016:Src/main.c    ****   RCC_ClkInitStruct.AHBCLKDivider = RCC_SYSCLK_DIV1;
 2954              		.loc 1 1016 3 is_stmt 1 view .LVU839
1017:Src/main.c    ****   RCC_ClkInitStruct.APB1CLKDivider = RCC_HCLK_DIV1;
 2955              		.loc 1 1017 3 view .LVU840
1017:Src/main.c    ****   RCC_ClkInitStruct.APB1CLKDivider = RCC_HCLK_DIV1;
 2956              		.loc 1 1017 35 is_stmt 0 view .LVU841
 2957 004e 0294     		str	r4, [sp, #8]
1018:Src/main.c    ****   RCC_ClkInitStruct.APB1CLKDivider = RCC_HCLK_DIV1;
 2958              		.loc 1 1018 3 is_stmt 1 view .LVU842
1018:Src/main.c    ****   RCC_ClkInitStruct.APB1CLKDivider = RCC_HCLK_DIV1;
 2959              		.loc 1 1018 36 is_stmt 0 view .LVU843
 2960 0050 0394     		str	r4, [sp, #12]
 2961              		.loc 1 1020 3 is_stmt 1 view .LVU844
 2962              		.loc 1 1020 7 is_stmt 0 view .LVU845
 2963 0052 FFF7FEFF 		bl	HAL_RCC_ClockConfig
 2964              	.LVL165:
1021:Src/main.c    ****   {
1022:Src/main.c    ****     Error_Handler();
 2965              		.loc 1 1022 5 is_stmt 1 view .LVU846
1023:Src/main.c    ****   }
1024:Src/main.c    ****   PeriphClkInit.PeriphClockSelection = RCC_PERIPHCLK_I2C1;
 2966              		.loc 1 1024 3 view .LVU847
 2967              		.loc 1 1024 38 is_stmt 0 view .LVU848
 2968 0056 2023     		movs	r3, #32
1025:Src/main.c    ****   PeriphClkInit.I2c1ClockSelection = RCC_I2C1CLKSOURCE_HSI;
1026:Src/main.c    ****   if (HAL_RCCEx_PeriphCLKConfig(&PeriphClkInit) != HAL_OK)
 2969              		.loc 1 1026 7 view .LVU849
 2970 0058 04A8     		add	r0, sp, #16
1024:Src/main.c    ****   PeriphClkInit.I2c1ClockSelection = RCC_I2C1CLKSOURCE_HSI;
 2971              		.loc 1 1024 38 view .LVU850
 2972 005a 0493     		str	r3, [sp, #16]
1025:Src/main.c    ****   PeriphClkInit.I2c1ClockSelection = RCC_I2C1CLKSOURCE_HSI;
 2973              		.loc 1 1025 3 is_stmt 1 view .LVU851
1025:Src/main.c    ****   PeriphClkInit.I2c1ClockSelection = RCC_I2C1CLKSOURCE_HSI;
 2974              		.loc 1 1025 36 is_stmt 0 view .LVU852
 2975 005c 0794     		str	r4, [sp, #28]
 2976              		.loc 1 1026 3 is_stmt 1 view .LVU853
 2977              		.loc 1 1026 7 is_stmt 0 view .LVU854
 2978 005e FFF7FEFF 		bl	HAL_RCCEx_PeriphCLKConfig
 2979              	.LVL166:
1027:Src/main.c    ****   {
1028:Src/main.c    ****     Error_Handler();
 2980              		.loc 1 1028 5 is_stmt 1 view .LVU855
1029:Src/main.c    ****   }
1030:Src/main.c    **** }
 2981              		.loc 1 1030 1 is_stmt 0 view .LVU856
 2982 0062 14B0     		add	sp, sp, #80
 2983              		@ sp needed
 2984 0064 10BD     		pop	{r4, pc}
 2985              		.cfi_endproc
 2986              	.LFE57:
 2988              		.section	.text.startup.main,"ax",%progbits
 2989              		.align	1
 2990              		.global	main
ARM GAS  D:\Temp\ccpUgK8Y.s 			page 81


 2991              		.syntax unified
 2992              		.code	16
 2993              		.thumb_func
 2995              	main:
 2996              	.LFB56:
 822:Src/main.c    ****   /* USER CODE BEGIN 1 */
 2997              		.loc 1 822 1 is_stmt 1 view -0
 2998              		.cfi_startproc
 2999              		@ args = 0, pretend = 0, frame = 24
 3000              		@ frame_needed = 0, uses_anonymous_args = 0
 831:Src/main.c    **** 
 3001              		.loc 1 831 3 view .LVU858
 822:Src/main.c    ****   /* USER CODE BEGIN 1 */
 3002              		.loc 1 822 1 is_stmt 0 view .LVU859
 3003 0000 F0B5     		push	{r4, r5, r6, r7, lr}
 3004              	.LCFI20:
 3005              		.cfi_def_cfa_offset 20
 3006              		.cfi_offset 4, -20
 3007              		.cfi_offset 5, -16
 3008              		.cfi_offset 6, -12
 3009              		.cfi_offset 7, -8
 3010              		.cfi_offset 14, -4
 3011 0002 87B0     		sub	sp, sp, #28
 3012              	.LCFI21:
 3013              		.cfi_def_cfa_offset 48
 831:Src/main.c    **** 
 3014              		.loc 1 831 3 view .LVU860
 3015 0004 FFF7FEFF 		bl	HAL_Init
 3016              	.LVL167:
 838:Src/main.c    **** 
 3017              		.loc 1 838 3 is_stmt 1 view .LVU861
 3018 0008 FFF7FEFF 		bl	SystemClock_Config
 3019              	.LVL168:
 845:Src/main.c    ****   MX_DMA_Init();
 3020              		.loc 1 845 3 view .LVU862
 3021 000c FFF7FEFF 		bl	MX_GPIO_Init
 3022              	.LVL169:
 846:Src/main.c    ****   MX_I2C1_Init();
 3023              		.loc 1 846 3 view .LVU863
 3024 0010 FFF7FEFF 		bl	MX_DMA_Init
 3025              	.LVL170:
 847:Src/main.c    ****   MX_ADC_Init();
 3026              		.loc 1 847 3 view .LVU864
 3027 0014 FFF7FEFF 		bl	MX_I2C1_Init
 3028              	.LVL171:
 848:Src/main.c    ****   MX_TIM17_Init();
 3029              		.loc 1 848 3 view .LVU865
 3030 0018 FFF7FEFF 		bl	MX_ADC_Init
 3031              	.LVL172:
 849:Src/main.c    ****   MX_TIM3_Init();
 3032              		.loc 1 849 3 view .LVU866
 3033 001c FFF7FEFF 		bl	MX_TIM17_Init
 3034              	.LVL173:
 850:Src/main.c    ****   MX_TIM16_Init();
 3035              		.loc 1 850 3 view .LVU867
 3036 0020 FFF7FEFF 		bl	MX_TIM3_Init
 3037              	.LVL174:
ARM GAS  D:\Temp\ccpUgK8Y.s 			page 82


 851:Src/main.c    ****   /* USER CODE BEGIN 2 */
 3038              		.loc 1 851 3 view .LVU868
 3039 0024 FFF7FEFF 		bl	MX_TIM16_Init
 3040              	.LVL175:
 855:Src/main.c    ****   ReadBackData(BAK_POWER_DOWN_IND_INDEX, backupData, BAK_DATA_SIZE);
 3041              		.loc 1 855 3 view .LVU869
 856:Src/main.c    ****   if(backupData[0] != POWER_DOWN_IND_DATA && backupData[1] != POWER_DOWN_IND_DATA){
 3042              		.loc 1 856 3 view .LVU870
 3043 0028 0D22     		movs	r2, #13
 3044 002a 0020     		movs	r0, #0
 3045 002c 02A9     		add	r1, sp, #8
 3046 002e FFF7FEFF 		bl	ReadBackData
 3047              	.LVL176:
 857:Src/main.c    **** 	  // 重置时间
 3048              		.loc 1 857 3 view .LVU871
 857:Src/main.c    **** 	  // 重置时间
 3049              		.loc 1 857 5 is_stmt 0 view .LVU872
 3050 0032 02AB     		add	r3, sp, #8
 3051 0034 884A     		ldr	r2, .L299
 3052 0036 1B78     		ldrb	r3, [r3]
 3053 0038 884C     		ldr	r4, .L299+4
 3054 003a 894E     		ldr	r6, .L299+8
 3055 003c 894F     		ldr	r7, .L299+12
 3056 003e 8A4D     		ldr	r5, .L299+16
 3057 0040 0192     		str	r2, [sp, #4]
 3058 0042 FA2B     		cmp	r3, #250
 3059 0044 00D1     		bne	.LCB2554
 3060 0046 B8E0     		b	.L259	@long jump
 3061              	.LCB2554:
 857:Src/main.c    **** 	  // 重置时间
 3062              		.loc 1 857 43 discriminator 1 view .LVU873
 3063 0048 02AB     		add	r3, sp, #8
 3064 004a 5B78     		ldrb	r3, [r3, #1]
 3065 004c FA2B     		cmp	r3, #250
 3066 004e 00D1     		bne	.LCB2558
 3067 0050 B3E0     		b	.L259	@long jump
 3068              	.LCB2558:
 859:Src/main.c    **** 	  time.month = 1;
 3069              		.loc 1 859 4 is_stmt 1 view .LVU874
 859:Src/main.c    **** 	  time.month = 1;
 3070              		.loc 1 859 14 is_stmt 0 view .LVU875
 3071 0052 0F23     		movs	r3, #15
 3072 0054 E371     		strb	r3, [r4, #7]
 860:Src/main.c    **** 	  time.dayOfMonth = 1;
 3073              		.loc 1 860 4 is_stmt 1 view .LVU876
 860:Src/main.c    **** 	  time.dayOfMonth = 1;
 3074              		.loc 1 860 15 is_stmt 0 view .LVU877
 3075 0056 0E3B     		subs	r3, r3, #14
 865:Src/main.c    **** 	  time.seconds = 0;
 3076              		.loc 1 865 14 view .LVU878
 3077 0058 0222     		movs	r2, #2
 860:Src/main.c    **** 	  time.dayOfMonth = 1;
 3078              		.loc 1 860 15 view .LVU879
 3079 005a A371     		strb	r3, [r4, #6]
 861:Src/main.c    **** 	  time.dayOfWeek = 1;
 3080              		.loc 1 861 4 is_stmt 1 view .LVU880
 861:Src/main.c    **** 	  time.dayOfWeek = 1;
ARM GAS  D:\Temp\ccpUgK8Y.s 			page 83


 3081              		.loc 1 861 20 is_stmt 0 view .LVU881
 3082 005c 6371     		strb	r3, [r4, #5]
 862:Src/main.c    **** 	  time.hours = 0;
 3083              		.loc 1 862 4 is_stmt 1 view .LVU882
 862:Src/main.c    **** 	  time.hours = 0;
 3084              		.loc 1 862 19 is_stmt 0 view .LVU883
 3085 005e 2371     		strb	r3, [r4, #4]
 863:Src/main.c    **** 	  time.minutes = 0;
 3086              		.loc 1 863 4 is_stmt 1 view .LVU884
 863:Src/main.c    **** 	  time.minutes = 0;
 3087              		.loc 1 863 15 is_stmt 0 view .LVU885
 3088 0060 0023     		movs	r3, #0
 867:Src/main.c    **** 
 3089              		.loc 1 867 4 view .LVU886
 3090 0062 2000     		movs	r0, r4
 863:Src/main.c    **** 	  time.minutes = 0;
 3091              		.loc 1 863 15 view .LVU887
 3092 0064 E370     		strb	r3, [r4, #3]
 864:Src/main.c    **** 	  time.ampm = HOUR24;
 3093              		.loc 1 864 4 is_stmt 1 view .LVU888
 864:Src/main.c    **** 	  time.ampm = HOUR24;
 3094              		.loc 1 864 17 is_stmt 0 view .LVU889
 3095 0066 6370     		strb	r3, [r4, #1]
 865:Src/main.c    **** 	  time.seconds = 0;
 3096              		.loc 1 865 4 is_stmt 1 view .LVU890
 865:Src/main.c    **** 	  time.seconds = 0;
 3097              		.loc 1 865 14 is_stmt 0 view .LVU891
 3098 0068 A270     		strb	r2, [r4, #2]
 866:Src/main.c    **** 	  SetTime(&time);
 3099              		.loc 1 866 4 is_stmt 1 view .LVU892
 866:Src/main.c    **** 	  SetTime(&time);
 3100              		.loc 1 866 17 is_stmt 0 view .LVU893
 3101 006a 2370     		strb	r3, [r4]
 867:Src/main.c    **** 
 3102              		.loc 1 867 4 is_stmt 1 view .LVU894
 3103 006c FFF7FEFF 		bl	SetTime
 3104              	.LVL177:
 870:Src/main.c    **** 	  saveSettings();
 3105              		.loc 1 870 4 view .LVU895
 3106 0070 FFF7FEFF 		bl	resetSettings
 3107              	.LVL178:
 871:Src/main.c    ****   }else{
 3108              		.loc 1 871 4 view .LVU896
 3109 0074 FFF7FEFF 		bl	saveSettings
 3110              	.LVL179:
 3111              	.L260:
 887:Src/main.c    ****   if(alarmHour > (uint8_t)23 || alarmMin > (uint8_t)59){
 3112              		.loc 1 887 3 view .LVU897
 888:Src/main.c    **** 	  hasError = true;
 3113              		.loc 1 888 3 view .LVU898
 888:Src/main.c    **** 	  hasError = true;
 3114              		.loc 1 888 5 is_stmt 0 view .LVU899
 3115 0078 3278     		ldrb	r2, [r6]
 889:Src/main.c    ****   }
 3116              		.loc 1 889 13 view .LVU900
 3117 007a 0123     		movs	r3, #1
 888:Src/main.c    **** 	  hasError = true;
ARM GAS  D:\Temp\ccpUgK8Y.s 			page 84


 3118              		.loc 1 888 5 view .LVU901
 3119 007c 172A     		cmp	r2, #23
 3120 007e 05D8     		bhi	.L261
 888:Src/main.c    **** 	  hasError = true;
 3121              		.loc 1 888 42 discriminator 1 view .LVU902
 3122 0080 7A4B     		ldr	r3, .L299+20
 888:Src/main.c    **** 	  hasError = true;
 3123              		.loc 1 888 30 discriminator 1 view .LVU903
 3124 0082 1A78     		ldrb	r2, [r3]
 3125 0084 3B23     		movs	r3, #59
 3126 0086 9342     		cmp	r3, r2
 3127 0088 9B41     		sbcs	r3, r3, r3
 3128 008a 5B42     		rsbs	r3, r3, #0
 3129              	.L261:
 3130              	.LVL180:
 894:Src/main.c    **** 	  hasError = true;
 3131              		.loc 1 894 3 is_stmt 1 view .LVU904
 894:Src/main.c    **** 	  hasError = true;
 3132              		.loc 1 894 5 is_stmt 0 view .LVU905
 3133 008c 3A78     		ldrb	r2, [r7]
 3134 008e 172A     		cmp	r2, #23
 3135 0090 00D9     		bls	.LCB2607
 3136 0092 C0E0     		b	.L284	@long jump
 3137              	.LCB2607:
 894:Src/main.c    **** 	  hasError = true;
 3138              		.loc 1 894 45 discriminator 1 view .LVU906
 3139 0094 764A     		ldr	r2, .L299+24
 894:Src/main.c    **** 	  hasError = true;
 3140              		.loc 1 894 27 discriminator 1 view .LVU907
 3141 0096 1278     		ldrb	r2, [r2]
 3142 0098 172A     		cmp	r2, #23
 3143 009a 00D9     		bls	.LCB2611
 3144 009c BBE0     		b	.L284	@long jump
 3145              	.LCB2611:
 3146              	.LVL181:
 3147              	.L262:
 897:Src/main.c    **** 	  hasError = true;
 3148              		.loc 1 897 3 is_stmt 1 view .LVU908
 897:Src/main.c    **** 	  hasError = true;
 3149              		.loc 1 897 5 is_stmt 0 view .LVU909
 3150 009e 2A78     		ldrb	r2, [r5]
 3151 00a0 082A     		cmp	r2, #8
 3152 00a2 0BD8     		bhi	.L263
 897:Src/main.c    **** 	  hasError = true;
 3153              		.loc 1 897 46 discriminator 1 view .LVU910
 3154 00a4 734A     		ldr	r2, .L299+28
 897:Src/main.c    **** 	  hasError = true;
 3155              		.loc 1 897 26 discriminator 1 view .LVU911
 3156 00a6 1278     		ldrb	r2, [r2]
 3157 00a8 013A     		subs	r2, r2, #1
 3158 00aa 072A     		cmp	r2, #7
 3159 00ac 06D8     		bhi	.L263
 897:Src/main.c    **** 	  hasError = true;
 3160              		.loc 1 897 93 discriminator 3 view .LVU912
 3161 00ae 724A     		ldr	r2, .L299+32
 897:Src/main.c    **** 	  hasError = true;
 3162              		.loc 1 897 75 discriminator 3 view .LVU913
ARM GAS  D:\Temp\ccpUgK8Y.s 			page 85


 3163 00b0 1278     		ldrb	r2, [r2]
 3164 00b2 013A     		subs	r2, r2, #1
 3165 00b4 072A     		cmp	r2, #7
 3166 00b6 01D8     		bhi	.L263
 902:Src/main.c    **** 	  resetSettings();
 3167              		.loc 1 902 3 is_stmt 1 view .LVU914
 902:Src/main.c    **** 	  resetSettings();
 3168              		.loc 1 902 5 is_stmt 0 view .LVU915
 3169 00b8 002B     		cmp	r3, #0
 3170 00ba 03D0     		beq	.L264
 3171              	.L263:
 3172              	.LVL182:
 903:Src/main.c    **** 	  saveSettings();
 3173              		.loc 1 903 4 is_stmt 1 view .LVU916
 3174 00bc FFF7FEFF 		bl	resetSettings
 3175              	.LVL183:
 904:Src/main.c    ****   }
 3176              		.loc 1 904 4 view .LVU917
 3177 00c0 FFF7FEFF 		bl	saveSettings
 3178              	.LVL184:
 3179              	.L264:
 907:Src/main.c    ****   if(savedBrightness != 0){
 3180              		.loc 1 907 3 view .LVU918
 3181 00c4 FFF7FEFF 		bl	TM1637Init
 3182              	.LVL185:
 908:Src/main.c    **** 	  TM1637SetBrightness(savedBrightness);
 3183              		.loc 1 908 3 view .LVU919
 908:Src/main.c    **** 	  TM1637SetBrightness(savedBrightness);
 3184              		.loc 1 908 22 is_stmt 0 view .LVU920
 3185 00c8 2D78     		ldrb	r5, [r5]
 908:Src/main.c    **** 	  TM1637SetBrightness(savedBrightness);
 3186              		.loc 1 908 5 view .LVU921
 3187 00ca 002D     		cmp	r5, #0
 3188 00cc 00D1     		bne	.LCB2648
 3189 00ce A4E0     		b	.L265	@long jump
 3190              	.LCB2648:
 909:Src/main.c    ****   }
 3191              		.loc 1 909 4 is_stmt 1 view .LVU922
 3192 00d0 2800     		movs	r0, r5
 3193 00d2 FFF7FEFF 		bl	TM1637SetBrightness
 3194              	.LVL186:
 3195              	.L266:
 916:Src/main.c    ****   HAL_ADC_Start_DMA(&hadc, adcValue, 2);
 3196              		.loc 1 916 3 view .LVU923
 3197 00d6 694D     		ldr	r5, .L299+36
 943:Src/main.c    **** 				HAL_GPIO_WritePin(BUZZER_GPIO_PORT, BUZZER_PIN, GPIO_PIN_SET);
 3198              		.loc 1 943 28 is_stmt 0 discriminator 1 view .LVU924
 3199 00d8 FA27     		movs	r7, #250
 916:Src/main.c    ****   HAL_ADC_Start_DMA(&hadc, adcValue, 2);
 3200              		.loc 1 916 3 view .LVU925
 3201 00da 2800     		movs	r0, r5
 3202 00dc FFF7FEFF 		bl	HAL_ADCEx_Calibration_Start
 3203              	.LVL187:
 917:Src/main.c    ****   HAL_TIM_Base_Start(&htim3);
 3204              		.loc 1 917 3 is_stmt 1 view .LVU926
 3205 00e0 6749     		ldr	r1, .L299+40
 3206 00e2 0222     		movs	r2, #2
ARM GAS  D:\Temp\ccpUgK8Y.s 			page 86


 3207 00e4 2800     		movs	r0, r5
 3208 00e6 FFF7FEFF 		bl	HAL_ADC_Start_DMA
 3209              	.LVL188:
 918:Src/main.c    **** 
 3210              		.loc 1 918 3 view .LVU927
 3211 00ea 6648     		ldr	r0, .L299+44
 3212 00ec FFF7FEFF 		bl	HAL_TIM_Base_Start
 3213              	.LVL189:
 920:Src/main.c    **** 
 3214              		.loc 1 920 3 view .LVU928
 3215 00f0 6548     		ldr	r0, .L299+48
 3216 00f2 FFF7FEFF 		bl	HAL_TIM_Base_Start_IT
 3217              	.LVL190:
 922:Src/main.c    ****   lastRingOnTimeHour = time.hours;
 3218              		.loc 1 922 3 view .LVU929
 3219 00f6 2000     		movs	r0, r4
 3220 00f8 FFF7FEFF 		bl	TimeNow
 3221              	.LVL191:
 923:Src/main.c    **** 
 3222              		.loc 1 923 3 view .LVU930
 923:Src/main.c    **** 
 3223              		.loc 1 923 22 is_stmt 0 view .LVU931
 3224 00fc E278     		ldrb	r2, [r4, #3]
 3225 00fe 634B     		ldr	r3, .L299+52
 935:Src/main.c    ****   while (1)
 3226              		.loc 1 935 12 view .LVU932
 3227 0100 0024     		movs	r4, #0
 923:Src/main.c    **** 
 3228              		.loc 1 923 22 view .LVU933
 3229 0102 1A70     		strb	r2, [r3]
 925:Src/main.c    **** 
 3230              		.loc 1 925 3 is_stmt 1 view .LVU934
 3231 0104 FFF7FEFF 		bl	EnableSencodInterruptOuput
 3232              	.LVL192:
 927:Src/main.c    **** 
 3233              		.loc 1 927 3 view .LVU935
 927:Src/main.c    **** 
 3234              		.loc 1 927 27 is_stmt 0 view .LVU936
 3235 0108 FFF7FEFF 		bl	HAL_GetTick
 3236              	.LVL193:
 929:Src/main.c    **** 
 3237              		.loc 1 929 19 view .LVU937
 3238 010c 0122     		movs	r2, #1
 927:Src/main.c    **** 
 3239              		.loc 1 927 25 discriminator 1 view .LVU938
 3240 010e 604D     		ldr	r5, .L299+56
 929:Src/main.c    **** 
 3241              		.loc 1 929 19 view .LVU939
 3242 0110 604B     		ldr	r3, .L299+60
 927:Src/main.c    **** 
 3243              		.loc 1 927 25 discriminator 1 view .LVU940
 3244 0112 2860     		str	r0, [r5]
 929:Src/main.c    **** 
 3245              		.loc 1 929 3 is_stmt 1 view .LVU941
 929:Src/main.c    **** 
 3246              		.loc 1 929 19 is_stmt 0 view .LVU942
 3247 0114 1A70     		strb	r2, [r3]
ARM GAS  D:\Temp\ccpUgK8Y.s 			page 87


 935:Src/main.c    ****   while (1)
 3248              		.loc 1 935 3 is_stmt 1 view .LVU943
 3249              	.LVL194:
 943:Src/main.c    **** 				HAL_GPIO_WritePin(BUZZER_GPIO_PORT, BUZZER_PIN, GPIO_PIN_SET);
 3250              		.loc 1 943 28 is_stmt 0 discriminator 1 view .LVU944
 3251 0116 BF00     		lsls	r7, r7, #2
 3252              	.LVL195:
 3253              	.L267:
 936:Src/main.c    ****   {
 3254              		.loc 1 936 3 is_stmt 1 view .LVU945
 941:Src/main.c    **** 			now = HAL_GetTick();
 3255              		.loc 1 941 3 view .LVU946
 941:Src/main.c    **** 			now = HAL_GetTick();
 3256              		.loc 1 941 7 is_stmt 0 view .LVU947
 3257 0118 9020     		movs	r0, #144
 3258 011a 4021     		movs	r1, #64
 3259 011c C005     		lsls	r0, r0, #23
 3260 011e FFF7FEFF 		bl	HAL_GPIO_ReadPin
 3261              	.LVL196:
 941:Src/main.c    **** 			now = HAL_GetTick();
 3262              		.loc 1 941 6 discriminator 1 view .LVU948
 3263 0122 0028     		cmp	r0, #0
 3264 0124 13D1     		bne	.L268
 941:Src/main.c    **** 			now = HAL_GetTick();
 3265              		.loc 1 941 75 discriminator 1 view .LVU949
 3266 0126 5C4B     		ldr	r3, .L299+64
 941:Src/main.c    **** 			now = HAL_GetTick();
 3267              		.loc 1 941 72 discriminator 1 view .LVU950
 3268 0128 1B78     		ldrb	r3, [r3]
 3269 012a 002B     		cmp	r3, #0
 3270 012c 0FD1     		bne	.L268
 942:Src/main.c    **** 			if (now < ringStartTime || (now - ringStartTime >= RING_ON_TIME_LONG)) {
 3271              		.loc 1 942 4 is_stmt 1 view .LVU951
 942:Src/main.c    **** 			if (now < ringStartTime || (now - ringStartTime >= RING_ON_TIME_LONG)) {
 3272              		.loc 1 942 10 is_stmt 0 view .LVU952
 3273 012e FFF7FEFF 		bl	HAL_GetTick
 3274              	.LVL197:
 943:Src/main.c    **** 				HAL_GPIO_WritePin(BUZZER_GPIO_PORT, BUZZER_PIN, GPIO_PIN_SET);
 3275              		.loc 1 943 12 view .LVU953
 3276 0132 5A4B     		ldr	r3, .L299+68
 942:Src/main.c    **** 			if (now < ringStartTime || (now - ringStartTime >= RING_ON_TIME_LONG)) {
 3277              		.loc 1 942 10 view .LVU954
 3278 0134 0400     		movs	r4, r0
 3279              	.LVL198:
 943:Src/main.c    **** 				HAL_GPIO_WritePin(BUZZER_GPIO_PORT, BUZZER_PIN, GPIO_PIN_SET);
 3280              		.loc 1 943 4 is_stmt 1 view .LVU955
 943:Src/main.c    **** 				HAL_GPIO_WritePin(BUZZER_GPIO_PORT, BUZZER_PIN, GPIO_PIN_SET);
 3281              		.loc 1 943 12 is_stmt 0 view .LVU956
 3282 0136 1B68     		ldr	r3, [r3]
 943:Src/main.c    **** 				HAL_GPIO_WritePin(BUZZER_GPIO_PORT, BUZZER_PIN, GPIO_PIN_SET);
 3283              		.loc 1 943 7 view .LVU957
 3284 0138 8342     		cmp	r3, r0
 3285 013a 02D8     		bhi	.L269
 943:Src/main.c    **** 				HAL_GPIO_WritePin(BUZZER_GPIO_PORT, BUZZER_PIN, GPIO_PIN_SET);
 3286              		.loc 1 943 36 discriminator 1 view .LVU958
 3287 013c C31A     		subs	r3, r0, r3
 943:Src/main.c    **** 				HAL_GPIO_WritePin(BUZZER_GPIO_PORT, BUZZER_PIN, GPIO_PIN_SET);
ARM GAS  D:\Temp\ccpUgK8Y.s 			page 88


 3288              		.loc 1 943 28 discriminator 1 view .LVU959
 3289 013e BB42     		cmp	r3, r7
 3290 0140 05D3     		bcc	.L268
 3291              	.L269:
 944:Src/main.c    **** 			}
 3292              		.loc 1 944 5 is_stmt 1 view .LVU960
 3293 0142 9020     		movs	r0, #144
 3294              	.LVL199:
 944:Src/main.c    **** 			}
 3295              		.loc 1 944 5 is_stmt 0 view .LVU961
 3296 0144 0122     		movs	r2, #1
 3297 0146 4021     		movs	r1, #64
 3298 0148 C005     		lsls	r0, r0, #23
 3299 014a FFF7FEFF 		bl	HAL_GPIO_WritePin
 3300              	.LVL200:
 3301              	.L268:
 948:Src/main.c    **** 			if (currentMode == MODE_SHOW_TIME) {
 3302              		.loc 1 948 3 is_stmt 1 view .LVU962
 948:Src/main.c    **** 			if (currentMode == MODE_SHOW_TIME) {
 3303              		.loc 1 948 6 is_stmt 0 view .LVU963
 3304 014e 019A     		ldr	r2, [sp, #4]
 949:Src/main.c    **** 				now = HAL_GetTick();
 3305              		.loc 1 949 20 view .LVU964
 3306 0150 534E     		ldr	r6, .L299+72
 948:Src/main.c    **** 			if (currentMode == MODE_SHOW_TIME) {
 3307              		.loc 1 948 6 view .LVU965
 3308 0152 1278     		ldrb	r2, [r2]
 949:Src/main.c    **** 				now = HAL_GetTick();
 3309              		.loc 1 949 20 view .LVU966
 3310 0154 3378     		ldrb	r3, [r6]
 948:Src/main.c    **** 			if (currentMode == MODE_SHOW_TIME) {
 3311              		.loc 1 948 6 view .LVU967
 3312 0156 002A     		cmp	r2, #0
 3313 0158 79D0     		beq	.L271
 949:Src/main.c    **** 				now = HAL_GetTick();
 3314              		.loc 1 949 4 is_stmt 1 view .LVU968
 949:Src/main.c    **** 				now = HAL_GetTick();
 3315              		.loc 1 949 7 is_stmt 0 view .LVU969
 3316 015a 002B     		cmp	r3, #0
 3317 015c 63D1     		bne	.L272
 950:Src/main.c    **** 				passedTime = now - lastDisplayChangeTime;
 3318              		.loc 1 950 5 is_stmt 1 view .LVU970
 950:Src/main.c    **** 				passedTime = now - lastDisplayChangeTime;
 3319              		.loc 1 950 11 is_stmt 0 view .LVU971
 3320 015e FFF7FEFF 		bl	HAL_GetTick
 3321              	.LVL201:
 951:Src/main.c    **** 				if (now < lastDisplayChangeTime || passedTime >= (tempertureHideTime * 1000)) {
 3322              		.loc 1 951 22 view .LVU972
 3323 0162 2B68     		ldr	r3, [r5]
 950:Src/main.c    **** 				passedTime = now - lastDisplayChangeTime;
 3324              		.loc 1 950 11 view .LVU973
 3325 0164 0400     		movs	r4, r0
 3326              	.LVL202:
 951:Src/main.c    **** 				if (now < lastDisplayChangeTime || passedTime >= (tempertureHideTime * 1000)) {
 3327              		.loc 1 951 5 is_stmt 1 view .LVU974
 952:Src/main.c    **** 					currentMode = MODE_SHOW_TEMPERTURE;
 3328              		.loc 1 952 5 view .LVU975
ARM GAS  D:\Temp\ccpUgK8Y.s 			page 89


 952:Src/main.c    **** 					currentMode = MODE_SHOW_TEMPERTURE;
 3329              		.loc 1 952 8 is_stmt 0 view .LVU976
 3330 0166 8342     		cmp	r3, r0
 3331 0168 05D8     		bhi	.L273
 952:Src/main.c    **** 					currentMode = MODE_SHOW_TEMPERTURE;
 3332              		.loc 1 952 74 discriminator 1 view .LVU977
 3333 016a 4E4A     		ldr	r2, .L299+76
 951:Src/main.c    **** 				if (now < lastDisplayChangeTime || passedTime >= (tempertureHideTime * 1000)) {
 3334              		.loc 1 951 16 view .LVU978
 3335 016c C31A     		subs	r3, r0, r3
 3336              	.LVL203:
 952:Src/main.c    **** 					currentMode = MODE_SHOW_TEMPERTURE;
 3337              		.loc 1 952 74 discriminator 1 view .LVU979
 3338 016e 1278     		ldrb	r2, [r2]
 3339 0170 7A43     		muls	r2, r7
 952:Src/main.c    **** 					currentMode = MODE_SHOW_TEMPERTURE;
 3340              		.loc 1 952 37 discriminator 1 view .LVU980
 3341 0172 9A42     		cmp	r2, r3
 3342 0174 02D8     		bhi	.L274
 3343              	.LVL204:
 3344              	.L273:
 953:Src/main.c    **** 					lastDisplayChangeTime = now;
 3345              		.loc 1 953 6 is_stmt 1 view .LVU981
 953:Src/main.c    **** 					lastDisplayChangeTime = now;
 3346              		.loc 1 953 18 is_stmt 0 view .LVU982
 3347 0176 0223     		movs	r3, #2
 3348              	.LVL205:
 3349              	.L298:
 962:Src/main.c    **** 					lastDisplayChangeTime = now;
 3350              		.loc 1 962 18 view .LVU983
 3351 0178 3370     		strb	r3, [r6]
 963:Src/main.c    **** 				}
 3352              		.loc 1 963 6 is_stmt 1 view .LVU984
 3353              	.LVL206:
 3354              	.L297:
 968:Src/main.c    **** 		}
 3355              		.loc 1 968 4 view .LVU985
 968:Src/main.c    **** 		}
 3356              		.loc 1 968 26 is_stmt 0 view .LVU986
 3357 017a 2C60     		str	r4, [r5]
 3358              	.L274:
 971:Src/main.c    **** 				&& currentMode >= MODE_SET_HOUR && currentMode <= MODE_SET_ROT_STOP) {
 3359              		.loc 1 971 3 is_stmt 1 view .LVU987
 971:Src/main.c    **** 				&& currentMode >= MODE_SET_HOUR && currentMode <= MODE_SET_ROT_STOP) {
 3360              		.loc 1 971 7 is_stmt 0 view .LVU988
 3361 017c 9020     		movs	r0, #144
 3362 017e 0821     		movs	r1, #8
 3363 0180 C005     		lsls	r0, r0, #23
 3364 0182 FFF7FEFF 		bl	HAL_GPIO_ReadPin
 3365              	.LVL207:
 971:Src/main.c    **** 				&& currentMode >= MODE_SET_HOUR && currentMode <= MODE_SET_ROT_STOP) {
 3366              		.loc 1 971 6 discriminator 1 view .LVU989
 3367 0186 0028     		cmp	r0, #0
 3368 0188 C6D1     		bne	.L267
 972:Src/main.c    **** 				uint32_t curVal = HAL_GetTick();
 3369              		.loc 1 972 5 view .LVU990
 3370 018a 3378     		ldrb	r3, [r6]
ARM GAS  D:\Temp\ccpUgK8Y.s 			page 90


 3371 018c 033B     		subs	r3, r3, #3
 3372 018e 0C2B     		cmp	r3, #12
 3373 0190 C2D8     		bhi	.L267
 3374              	.LBB26:
 973:Src/main.c    **** 				uint32_t timePassed = curVal - lastSetKeyPressTime;
 3375              		.loc 1 973 5 is_stmt 1 view .LVU991
 973:Src/main.c    **** 				uint32_t timePassed = curVal - lastSetKeyPressTime;
 3376              		.loc 1 973 23 is_stmt 0 view .LVU992
 3377 0192 FFF7FEFF 		bl	HAL_GetTick
 3378              	.LVL208:
 975:Src/main.c    **** 					if (curVal - lastSetKeyPressReportTime > KEY_REPEAT_TIME_INTERVAL) {
 3379              		.loc 1 975 8 view .LVU993
 3380 0196 C822     		movs	r2, #200
 974:Src/main.c    **** 				if (timePassed > KEY_LONG_PRESS_EFFECT_TIME) {
 3381              		.loc 1 974 34 view .LVU994
 3382 0198 434B     		ldr	r3, .L299+80
 973:Src/main.c    **** 				uint32_t timePassed = curVal - lastSetKeyPressTime;
 3383              		.loc 1 973 23 view .LVU995
 3384 019a 0090     		str	r0, [sp]
 3385              	.LVL209:
 974:Src/main.c    **** 				if (timePassed > KEY_LONG_PRESS_EFFECT_TIME) {
 3386              		.loc 1 974 5 is_stmt 1 view .LVU996
 975:Src/main.c    **** 					if (curVal - lastSetKeyPressReportTime > KEY_REPEAT_TIME_INTERVAL) {
 3387              		.loc 1 975 5 view .LVU997
 974:Src/main.c    **** 				if (timePassed > KEY_LONG_PRESS_EFFECT_TIME) {
 3388              		.loc 1 974 14 is_stmt 0 view .LVU998
 3389 019c 1B68     		ldr	r3, [r3]
 3390              	.LVL210:
 975:Src/main.c    **** 					if (curVal - lastSetKeyPressReportTime > KEY_REPEAT_TIME_INTERVAL) {
 3391              		.loc 1 975 8 view .LVU999
 3392 019e 9200     		lsls	r2, r2, #2
 974:Src/main.c    **** 				if (timePassed > KEY_LONG_PRESS_EFFECT_TIME) {
 3393              		.loc 1 974 14 view .LVU1000
 3394 01a0 C31A     		subs	r3, r0, r3
 3395              	.LVL211:
 975:Src/main.c    **** 					if (curVal - lastSetKeyPressReportTime > KEY_REPEAT_TIME_INTERVAL) {
 3396              		.loc 1 975 8 view .LVU1001
 3397 01a2 9342     		cmp	r3, r2
 3398 01a4 B8D9     		bls	.L267
 976:Src/main.c    **** 						setKeyPresseRepeatReport();
 3399              		.loc 1 976 6 is_stmt 1 view .LVU1002
 976:Src/main.c    **** 						setKeyPresseRepeatReport();
 3400              		.loc 1 976 17 is_stmt 0 view .LVU1003
 3401 01a6 414E     		ldr	r6, .L299+84
 3402 01a8 3368     		ldr	r3, [r6]
 3403              	.LVL212:
 976:Src/main.c    **** 						setKeyPresseRepeatReport();
 3404              		.loc 1 976 17 view .LVU1004
 3405 01aa C31A     		subs	r3, r0, r3
 976:Src/main.c    **** 						setKeyPresseRepeatReport();
 3406              		.loc 1 976 9 view .LVU1005
 3407 01ac FA2B     		cmp	r3, #250
 3408 01ae B3D9     		bls	.L267
 977:Src/main.c    **** 						lastSetKeyPressReportTime = curVal;
 3409              		.loc 1 977 7 is_stmt 1 view .LVU1006
 3410 01b0 FFF7FEFF 		bl	setKeyPresseRepeatReport
 3411              	.LVL213:
ARM GAS  D:\Temp\ccpUgK8Y.s 			page 91


 978:Src/main.c    **** 					}
 3412              		.loc 1 978 7 view .LVU1007
 978:Src/main.c    **** 					}
 3413              		.loc 1 978 33 is_stmt 0 view .LVU1008
 3414 01b4 009B     		ldr	r3, [sp]
 3415 01b6 3360     		str	r3, [r6]
 3416 01b8 AEE7     		b	.L267
 3417              	.LVL214:
 3418              	.L259:
 978:Src/main.c    **** 					}
 3419              		.loc 1 978 33 view .LVU1009
 3420              	.LBE26:
 873:Src/main.c    **** 	  alarmHour = backupData[BAK_ALARM_HOUR_INDEX];
 3421              		.loc 1 873 4 is_stmt 1 view .LVU1010
 873:Src/main.c    **** 	  alarmHour = backupData[BAK_ALARM_HOUR_INDEX];
 3422              		.loc 1 873 31 is_stmt 0 view .LVU1011
 3423 01ba 02AA     		add	r2, sp, #8
 3424 01bc 9278     		ldrb	r2, [r2, #2]
 873:Src/main.c    **** 	  alarmHour = backupData[BAK_ALARM_HOUR_INDEX];
 3425              		.loc 1 873 19 view .LVU1012
 3426 01be 3C4B     		ldr	r3, .L299+88
 873:Src/main.c    **** 	  alarmHour = backupData[BAK_ALARM_HOUR_INDEX];
 3427              		.loc 1 873 31 view .LVU1013
 3428 01c0 511E     		subs	r1, r2, #1
 3429 01c2 8A41     		sbcs	r2, r2, r1
 3430 01c4 1A70     		strb	r2, [r3]
 874:Src/main.c    **** 	  alarmMin = backupData[BAK_ALARM_MINUTE_INDEX];
 3431              		.loc 1 874 4 is_stmt 1 view .LVU1014
 874:Src/main.c    **** 	  alarmMin = backupData[BAK_ALARM_MINUTE_INDEX];
 3432              		.loc 1 874 14 is_stmt 0 view .LVU1015
 3433 01c6 02AB     		add	r3, sp, #8
 3434 01c8 DB78     		ldrb	r3, [r3, #3]
 875:Src/main.c    **** 	  tempertureShowTime = backupData[BAK_TEMP_SHOW_TIME_INDEX];
 3435              		.loc 1 875 13 view .LVU1016
 3436 01ca 02AA     		add	r2, sp, #8
 874:Src/main.c    **** 	  alarmMin = backupData[BAK_ALARM_MINUTE_INDEX];
 3437              		.loc 1 874 14 view .LVU1017
 3438 01cc 3370     		strb	r3, [r6]
 875:Src/main.c    **** 	  tempertureShowTime = backupData[BAK_TEMP_SHOW_TIME_INDEX];
 3439              		.loc 1 875 4 is_stmt 1 view .LVU1018
 875:Src/main.c    **** 	  tempertureShowTime = backupData[BAK_TEMP_SHOW_TIME_INDEX];
 3440              		.loc 1 875 13 is_stmt 0 view .LVU1019
 3441 01ce 1279     		ldrb	r2, [r2, #4]
 3442 01d0 264B     		ldr	r3, .L299+20
 3443 01d2 1A70     		strb	r2, [r3]
 876:Src/main.c    **** 	  tempertureHideTime = backupData[BAK_TEMP_HIDE_TIME_INDEX];
 3444              		.loc 1 876 4 is_stmt 1 view .LVU1020
 876:Src/main.c    **** 	  tempertureHideTime = backupData[BAK_TEMP_HIDE_TIME_INDEX];
 3445              		.loc 1 876 23 is_stmt 0 view .LVU1021
 3446 01d4 02AB     		add	r3, sp, #8
 3447 01d6 5B79     		ldrb	r3, [r3, #5]
 3448 01d8 019A     		ldr	r2, [sp, #4]
 3449 01da 1370     		strb	r3, [r2]
 877:Src/main.c    **** 	  isRingOnTimeEnabled = backupData[BAK_ROT_ENABLED_INDEX];
 3450              		.loc 1 877 4 is_stmt 1 view .LVU1022
 877:Src/main.c    **** 	  isRingOnTimeEnabled = backupData[BAK_ROT_ENABLED_INDEX];
 3451              		.loc 1 877 23 is_stmt 0 view .LVU1023
ARM GAS  D:\Temp\ccpUgK8Y.s 			page 92


 3452 01dc 02AA     		add	r2, sp, #8
 3453 01de 9279     		ldrb	r2, [r2, #6]
 3454 01e0 304B     		ldr	r3, .L299+76
 3455 01e2 1A70     		strb	r2, [r3]
 878:Src/main.c    **** 	  ringOnTimeStart = backupData[BAK_ROT_START_INDEX];
 3456              		.loc 1 878 4 is_stmt 1 view .LVU1024
 878:Src/main.c    **** 	  ringOnTimeStart = backupData[BAK_ROT_START_INDEX];
 3457              		.loc 1 878 36 is_stmt 0 view .LVU1025
 3458 01e4 02AA     		add	r2, sp, #8
 3459 01e6 D279     		ldrb	r2, [r2, #7]
 878:Src/main.c    **** 	  ringOnTimeStart = backupData[BAK_ROT_START_INDEX];
 3460              		.loc 1 878 24 view .LVU1026
 3461 01e8 324B     		ldr	r3, .L299+92
 878:Src/main.c    **** 	  ringOnTimeStart = backupData[BAK_ROT_START_INDEX];
 3462              		.loc 1 878 36 view .LVU1027
 3463 01ea 511E     		subs	r1, r2, #1
 3464 01ec 8A41     		sbcs	r2, r2, r1
 3465 01ee 1A70     		strb	r2, [r3]
 879:Src/main.c    **** 	  ringOnTimeStop = backupData[BAK_ROT_STOP_INDEX];
 3466              		.loc 1 879 4 is_stmt 1 view .LVU1028
 879:Src/main.c    **** 	  ringOnTimeStop = backupData[BAK_ROT_STOP_INDEX];
 3467              		.loc 1 879 20 is_stmt 0 view .LVU1029
 3468 01f0 02AB     		add	r3, sp, #8
 3469 01f2 1B7A     		ldrb	r3, [r3, #8]
 880:Src/main.c    **** 	  savedBrightness = backupData[BAK_BRIGHTNESS_INDEX];
 3470              		.loc 1 880 19 view .LVU1030
 3471 01f4 02AA     		add	r2, sp, #8
 879:Src/main.c    **** 	  ringOnTimeStop = backupData[BAK_ROT_STOP_INDEX];
 3472              		.loc 1 879 20 view .LVU1031
 3473 01f6 3B70     		strb	r3, [r7]
 880:Src/main.c    **** 	  savedBrightness = backupData[BAK_BRIGHTNESS_INDEX];
 3474              		.loc 1 880 4 is_stmt 1 view .LVU1032
 880:Src/main.c    **** 	  savedBrightness = backupData[BAK_BRIGHTNESS_INDEX];
 3475              		.loc 1 880 19 is_stmt 0 view .LVU1033
 3476 01f8 527A     		ldrb	r2, [r2, #9]
 3477 01fa 1D4B     		ldr	r3, .L299+24
 3478 01fc 1A70     		strb	r2, [r3]
 881:Src/main.c    **** 	  strongBrightness = backupData[BAK_BRIGHTNESS_STRONG_INDEX];
 3479              		.loc 1 881 4 is_stmt 1 view .LVU1034
 881:Src/main.c    **** 	  strongBrightness = backupData[BAK_BRIGHTNESS_STRONG_INDEX];
 3480              		.loc 1 881 20 is_stmt 0 view .LVU1035
 3481 01fe 02AB     		add	r3, sp, #8
 3482 0200 9B7A     		ldrb	r3, [r3, #10]
 882:Src/main.c    **** 	  weakBrightness = backupData[BAK_BRIGHTNESS_WEAK_INDEX];
 3483              		.loc 1 882 21 view .LVU1036
 3484 0202 02AA     		add	r2, sp, #8
 881:Src/main.c    **** 	  strongBrightness = backupData[BAK_BRIGHTNESS_STRONG_INDEX];
 3485              		.loc 1 881 20 view .LVU1037
 3486 0204 2B70     		strb	r3, [r5]
 882:Src/main.c    **** 	  weakBrightness = backupData[BAK_BRIGHTNESS_WEAK_INDEX];
 3487              		.loc 1 882 4 is_stmt 1 view .LVU1038
 882:Src/main.c    **** 	  weakBrightness = backupData[BAK_BRIGHTNESS_WEAK_INDEX];
 3488              		.loc 1 882 21 is_stmt 0 view .LVU1039
 3489 0206 D27A     		ldrb	r2, [r2, #11]
 3490 0208 1A4B     		ldr	r3, .L299+28
 3491 020a 1A70     		strb	r2, [r3]
 883:Src/main.c    ****   }
ARM GAS  D:\Temp\ccpUgK8Y.s 			page 93


 3492              		.loc 1 883 4 is_stmt 1 view .LVU1040
 883:Src/main.c    ****   }
 3493              		.loc 1 883 19 is_stmt 0 view .LVU1041
 3494 020c 02AA     		add	r2, sp, #8
 3495 020e 1A4B     		ldr	r3, .L299+32
 3496 0210 127B     		ldrb	r2, [r2, #12]
 3497 0212 1A70     		strb	r2, [r3]
 3498 0214 30E7     		b	.L260
 3499              	.LVL215:
 3500              	.L284:
 895:Src/main.c    ****   }
 3501              		.loc 1 895 13 view .LVU1042
 3502 0216 0123     		movs	r3, #1
 3503              	.LVL216:
 895:Src/main.c    ****   }
 3504              		.loc 1 895 13 view .LVU1043
 3505 0218 41E7     		b	.L262
 3506              	.LVL217:
 3507              	.L265:
 912:Src/main.c    **** 	  isWeakBrightness = false;
 3508              		.loc 1 912 4 is_stmt 1 view .LVU1044
 3509 021a 0820     		movs	r0, #8
 3510 021c FFF7FEFF 		bl	TM1637SetBrightness
 3511              	.LVL218:
 913:Src/main.c    ****   }
 3512              		.loc 1 913 4 view .LVU1045
 913:Src/main.c    ****   }
 3513              		.loc 1 913 21 is_stmt 0 view .LVU1046
 3514 0220 254B     		ldr	r3, .L299+96
 3515 0222 1D70     		strb	r5, [r3]
 3516 0224 57E7     		b	.L266
 3517              	.LVL219:
 3518              	.L272:
 958:Src/main.c    **** 				now = HAL_GetTick();
 3519              		.loc 1 958 9 is_stmt 1 view .LVU1047
 958:Src/main.c    **** 				now = HAL_GetTick();
 3520              		.loc 1 958 12 is_stmt 0 view .LVU1048
 3521 0226 022B     		cmp	r3, #2
 3522 0228 A8D1     		bne	.L274
 958:Src/main.c    **** 				now = HAL_GetTick();
 3523              		.loc 1 958 71 discriminator 1 view .LVU1049
 3524 022a 1E4B     		ldr	r3, .L299+76
 958:Src/main.c    **** 				now = HAL_GetTick();
 3525              		.loc 1 958 49 discriminator 1 view .LVU1050
 3526 022c 1B78     		ldrb	r3, [r3]
 3527 022e 002B     		cmp	r3, #0
 3528 0230 A4D0     		beq	.L274
 959:Src/main.c    **** 				passedTime = now - lastDisplayChangeTime;
 3529              		.loc 1 959 5 is_stmt 1 view .LVU1051
 959:Src/main.c    **** 				passedTime = now - lastDisplayChangeTime;
 3530              		.loc 1 959 11 is_stmt 0 view .LVU1052
 3531 0232 FFF7FEFF 		bl	HAL_GetTick
 3532              	.LVL220:
 960:Src/main.c    **** 				if (now < lastDisplayChangeTime || passedTime >= (tempertureShowTime * 1000)) {
 3533              		.loc 1 960 22 view .LVU1053
 3534 0236 2B68     		ldr	r3, [r5]
 959:Src/main.c    **** 				passedTime = now - lastDisplayChangeTime;
ARM GAS  D:\Temp\ccpUgK8Y.s 			page 94


 3535              		.loc 1 959 11 view .LVU1054
 3536 0238 0400     		movs	r4, r0
 3537              	.LVL221:
 960:Src/main.c    **** 				if (now < lastDisplayChangeTime || passedTime >= (tempertureShowTime * 1000)) {
 3538              		.loc 1 960 5 is_stmt 1 view .LVU1055
 961:Src/main.c    **** 					currentMode = MODE_SHOW_TIME;
 3539              		.loc 1 961 5 view .LVU1056
 961:Src/main.c    **** 					currentMode = MODE_SHOW_TIME;
 3540              		.loc 1 961 8 is_stmt 0 view .LVU1057
 3541 023a 8342     		cmp	r3, r0
 3542 023c 05D8     		bhi	.L277
 961:Src/main.c    **** 					currentMode = MODE_SHOW_TIME;
 3543              		.loc 1 961 74 discriminator 1 view .LVU1058
 3544 023e 019A     		ldr	r2, [sp, #4]
 960:Src/main.c    **** 				if (now < lastDisplayChangeTime || passedTime >= (tempertureShowTime * 1000)) {
 3545              		.loc 1 960 16 view .LVU1059
 3546 0240 C31A     		subs	r3, r0, r3
 3547              	.LVL222:
 961:Src/main.c    **** 					currentMode = MODE_SHOW_TIME;
 3548              		.loc 1 961 74 discriminator 1 view .LVU1060
 3549 0242 1278     		ldrb	r2, [r2]
 3550 0244 7A43     		muls	r2, r7
 961:Src/main.c    **** 					currentMode = MODE_SHOW_TIME;
 3551              		.loc 1 961 37 discriminator 1 view .LVU1061
 3552 0246 9A42     		cmp	r2, r3
 3553 0248 98D8     		bhi	.L274
 3554              	.LVL223:
 3555              	.L277:
 962:Src/main.c    **** 					lastDisplayChangeTime = now;
 3556              		.loc 1 962 6 is_stmt 1 view .LVU1062
 962:Src/main.c    **** 					lastDisplayChangeTime = now;
 3557              		.loc 1 962 18 is_stmt 0 view .LVU1063
 3558 024a 0023     		movs	r3, #0
 3559 024c 94E7     		b	.L298
 3560              	.LVL224:
 3561              	.L271:
 966:Src/main.c    **** 			currentMode = MODE_SHOW_TIME;
 3562              		.loc 1 966 10 is_stmt 1 view .LVU1064
 966:Src/main.c    **** 			currentMode = MODE_SHOW_TIME;
 3563              		.loc 1 966 12 is_stmt 0 view .LVU1065
 3564 024e 022B     		cmp	r3, #2
 3565 0250 94D1     		bne	.L274
 967:Src/main.c    **** 			lastDisplayChangeTime = now;
 3566              		.loc 1 967 4 is_stmt 1 view .LVU1066
 967:Src/main.c    **** 			lastDisplayChangeTime = now;
 3567              		.loc 1 967 16 is_stmt 0 view .LVU1067
 3568 0252 3270     		strb	r2, [r6]
 3569 0254 91E7     		b	.L297
 3570              	.L300:
 3571 0256 C046     		.align	2
 3572              	.L299:
 3573 0258 00000000 		.word	tempertureShowTime
 3574 025c 00000000 		.word	time
 3575 0260 00000000 		.word	alarmHour
 3576 0264 00000000 		.word	ringOnTimeStart
 3577 0268 00000000 		.word	savedBrightness
 3578 026c 00000000 		.word	alarmMin
ARM GAS  D:\Temp\ccpUgK8Y.s 			page 95


 3579 0270 00000000 		.word	ringOnTimeStop
 3580 0274 00000000 		.word	strongBrightness
 3581 0278 00000000 		.word	weakBrightness
 3582 027c 00000000 		.word	hadc
 3583 0280 00000000 		.word	adcValue
 3584 0284 00000000 		.word	htim3
 3585 0288 00000000 		.word	htim16
 3586 028c 00000000 		.word	lastRingOnTimeHour
 3587 0290 00000000 		.word	lastDisplayChangeTime
 3588 0294 00000000 		.word	isInitCompleted
 3589 0298 00000000 		.word	isAlarming
 3590 029c 00000000 		.word	ringStartTime
 3591 02a0 00000000 		.word	currentMode
 3592 02a4 00000000 		.word	tempertureHideTime
 3593 02a8 00000000 		.word	lastSetKeyPressTime
 3594 02ac 00000000 		.word	lastSetKeyPressReportTime
 3595 02b0 00000000 		.word	isAlarmEnabled
 3596 02b4 00000000 		.word	isRingOnTimeEnabled
 3597 02b8 00000000 		.word	isWeakBrightness
 3598              		.cfi_endproc
 3599              	.LFE56:
 3601              		.section	.text.HAL_GPIO_EXTI_Callback,"ax",%progbits
 3602              		.align	1
 3603              		.global	HAL_GPIO_EXTI_Callback
 3604              		.syntax unified
 3605              		.code	16
 3606              		.thumb_func
 3608              	HAL_GPIO_EXTI_Callback:
 3609              	.LVL225:
 3610              	.LFB58:
1031:Src/main.c    **** 
1032:Src/main.c    **** /* USER CODE BEGIN 4 */
1033:Src/main.c    **** void HAL_GPIO_EXTI_Callback(uint16_t GPIO_Pin){
 3611              		.loc 1 1033 47 is_stmt 1 view -0
 3612              		.cfi_startproc
 3613              		@ args = 0, pretend = 0, frame = 0
 3614              		@ frame_needed = 0, uses_anonymous_args = 0
1034:Src/main.c    **** 
1035:Src/main.c    **** 	if (GPIO_Pin == SECOND_INT_PIN && isInitCompleted) {
 3615              		.loc 1 1035 2 view .LVU1069
1033:Src/main.c    **** 
 3616              		.loc 1 1033 47 is_stmt 0 view .LVU1070
 3617 0000 0100     		movs	r1, r0
 3618 0002 10B5     		push	{r4, lr}
 3619              	.LCFI22:
 3620              		.cfi_def_cfa_offset 8
 3621              		.cfi_offset 4, -8
 3622              		.cfi_offset 14, -4
 3623              		.loc 1 1035 5 view .LVU1071
 3624 0004 0228     		cmp	r0, #2
 3625 0006 14D1     		bne	.L302
 3626              		.loc 1 1035 33 discriminator 1 view .LVU1072
 3627 0008 184B     		ldr	r3, .L312
 3628 000a 1B78     		ldrb	r3, [r3]
 3629 000c 002B     		cmp	r3, #0
 3630 000e 09D0     		beq	.L301
1036:Src/main.c    **** 		if(currentMode == MODE_SHOW_TIME || currentMode == MODE_SHOW_SECOND || currentMode == MODE_SHOW_T
ARM GAS  D:\Temp\ccpUgK8Y.s 			page 96


 3631              		.loc 1 1036 3 is_stmt 1 view .LVU1073
 3632              		.loc 1 1036 71 is_stmt 0 view .LVU1074
 3633 0010 174B     		ldr	r3, .L312+4
 3634 0012 1B78     		ldrb	r3, [r3]
 3635              		.loc 1 1036 5 view .LVU1075
 3636 0014 022B     		cmp	r3, #2
 3637 0016 06D8     		bhi	.L304
1037:Src/main.c    **** 			refreshTimeDisplay();
 3638              		.loc 1 1037 4 is_stmt 1 view .LVU1076
 3639 0018 FFF7FEFF 		bl	refreshTimeDisplay
 3640              	.LVL226:
 3641              	.L305:
1038:Src/main.c    **** 		}
1039:Src/main.c    **** 		else if(currentMode >= MODE_SET_HOUR && currentMode <= MODE_SET_ROT_STOP){
1040:Src/main.c    **** 			refreshSettingsDisplay();
1041:Src/main.c    **** 		}
1042:Src/main.c    **** 		blinkControl = ~blinkControl;
 3642              		.loc 1 1042 3 view .LVU1077
 3643              		.loc 1 1042 16 is_stmt 0 view .LVU1078
 3644 001c 154A     		ldr	r2, .L312+8
 3645 001e 1378     		ldrb	r3, [r2]
 3646 0020 DB43     		mvns	r3, r3
 3647 0022 1370     		strb	r3, [r2]
 3648              	.L301:
1043:Src/main.c    **** 	}
1044:Src/main.c    **** 	else if (GPIO_Pin == MODE_KEY_PIN) {
1045:Src/main.c    **** 
1046:Src/main.c    **** 		if (HAL_GPIO_ReadPin(MODE_KEY_GPIO_PORT, MODE_KEY_PIN) == GPIO_PIN_RESET) {
1047:Src/main.c    **** 			modeKeyPressed();
1048:Src/main.c    **** 		}
1049:Src/main.c    **** 		else {
1050:Src/main.c    **** 			modeKeyReleased();
1051:Src/main.c    **** 		}
1052:Src/main.c    **** 	}
1053:Src/main.c    **** 	else if (GPIO_Pin == SET_KEY_PIN) {
1054:Src/main.c    **** 		if (HAL_GPIO_ReadPin(SET_KEY_GPIO_PORT, SET_KEY_PIN) == GPIO_PIN_RESET) {
1055:Src/main.c    **** 			setKeyPressed();
1056:Src/main.c    **** 		}
1057:Src/main.c    **** 		else {
1058:Src/main.c    **** 			setKeyReleased();
1059:Src/main.c    **** 		}
1060:Src/main.c    **** 	}
1061:Src/main.c    **** }
 3649              		.loc 1 1061 1 view .LVU1079
 3650              		@ sp needed
 3651 0024 10BD     		pop	{r4, pc}
 3652              	.LVL227:
 3653              	.L304:
1039:Src/main.c    **** 			refreshSettingsDisplay();
 3654              		.loc 1 1039 8 is_stmt 1 view .LVU1080
1039:Src/main.c    **** 			refreshSettingsDisplay();
 3655              		.loc 1 1039 10 is_stmt 0 view .LVU1081
 3656 0026 033B     		subs	r3, r3, #3
 3657 0028 0C2B     		cmp	r3, #12
 3658 002a F7D8     		bhi	.L305
1040:Src/main.c    **** 		}
 3659              		.loc 1 1040 4 is_stmt 1 view .LVU1082
ARM GAS  D:\Temp\ccpUgK8Y.s 			page 97


 3660 002c FFF7FEFF 		bl	refreshSettingsDisplay
 3661              	.LVL228:
1040:Src/main.c    **** 		}
 3662              		.loc 1 1040 4 is_stmt 0 view .LVU1083
 3663 0030 F4E7     		b	.L305
 3664              	.LVL229:
 3665              	.L302:
1044:Src/main.c    **** 
 3666              		.loc 1 1044 7 is_stmt 1 view .LVU1084
1044:Src/main.c    **** 
 3667              		.loc 1 1044 10 is_stmt 0 view .LVU1085
 3668 0032 0428     		cmp	r0, #4
 3669 0034 0BD1     		bne	.L306
1046:Src/main.c    **** 			modeKeyPressed();
 3670              		.loc 1 1046 3 is_stmt 1 view .LVU1086
1046:Src/main.c    **** 			modeKeyPressed();
 3671              		.loc 1 1046 7 is_stmt 0 view .LVU1087
 3672 0036 9020     		movs	r0, #144
 3673              	.LVL230:
1046:Src/main.c    **** 			modeKeyPressed();
 3674              		.loc 1 1046 7 view .LVU1088
 3675 0038 C005     		lsls	r0, r0, #23
 3676 003a FFF7FEFF 		bl	HAL_GPIO_ReadPin
 3677              	.LVL231:
1046:Src/main.c    **** 			modeKeyPressed();
 3678              		.loc 1 1046 6 discriminator 1 view .LVU1089
 3679 003e 0028     		cmp	r0, #0
 3680 0040 02D1     		bne	.L307
1047:Src/main.c    **** 		}
 3681              		.loc 1 1047 4 is_stmt 1 view .LVU1090
 3682 0042 FFF7FEFF 		bl	modeKeyPressed
 3683              	.LVL232:
 3684 0046 EDE7     		b	.L301
 3685              	.L307:
1050:Src/main.c    **** 		}
 3686              		.loc 1 1050 4 view .LVU1091
 3687 0048 FFF7FEFF 		bl	modeKeyReleased
 3688              	.LVL233:
 3689 004c EAE7     		b	.L301
 3690              	.LVL234:
 3691              	.L306:
1053:Src/main.c    **** 		if (HAL_GPIO_ReadPin(SET_KEY_GPIO_PORT, SET_KEY_PIN) == GPIO_PIN_RESET) {
 3692              		.loc 1 1053 7 view .LVU1092
1053:Src/main.c    **** 		if (HAL_GPIO_ReadPin(SET_KEY_GPIO_PORT, SET_KEY_PIN) == GPIO_PIN_RESET) {
 3693              		.loc 1 1053 10 is_stmt 0 view .LVU1093
 3694 004e 0828     		cmp	r0, #8
 3695 0050 E8D1     		bne	.L301
1054:Src/main.c    **** 			setKeyPressed();
 3696              		.loc 1 1054 3 is_stmt 1 view .LVU1094
1054:Src/main.c    **** 			setKeyPressed();
 3697              		.loc 1 1054 7 is_stmt 0 view .LVU1095
 3698 0052 9020     		movs	r0, #144
 3699              	.LVL235:
1054:Src/main.c    **** 			setKeyPressed();
 3700              		.loc 1 1054 7 view .LVU1096
 3701 0054 C005     		lsls	r0, r0, #23
 3702 0056 FFF7FEFF 		bl	HAL_GPIO_ReadPin
ARM GAS  D:\Temp\ccpUgK8Y.s 			page 98


 3703              	.LVL236:
1054:Src/main.c    **** 			setKeyPressed();
 3704              		.loc 1 1054 6 discriminator 1 view .LVU1097
 3705 005a 0028     		cmp	r0, #0
 3706 005c 02D1     		bne	.L308
1055:Src/main.c    **** 		}
 3707              		.loc 1 1055 4 is_stmt 1 view .LVU1098
 3708 005e FFF7FEFF 		bl	setKeyPressed
 3709              	.LVL237:
 3710 0062 DFE7     		b	.L301
 3711              	.L308:
1058:Src/main.c    **** 		}
 3712              		.loc 1 1058 4 view .LVU1099
 3713 0064 FFF7FEFF 		bl	setKeyReleased
 3714              	.LVL238:
 3715              		.loc 1 1061 1 is_stmt 0 view .LVU1100
 3716 0068 DCE7     		b	.L301
 3717              	.L313:
 3718 006a C046     		.align	2
 3719              	.L312:
 3720 006c 00000000 		.word	isInitCompleted
 3721 0070 00000000 		.word	currentMode
 3722 0074 00000000 		.word	blinkControl
 3723              		.cfi_endproc
 3724              	.LFE58:
 3726              		.section	.text.HAL_TIM_PeriodElapsedCallback,"ax",%progbits
 3727              		.align	1
 3728              		.global	HAL_TIM_PeriodElapsedCallback
 3729              		.syntax unified
 3730              		.code	16
 3731              		.thumb_func
 3733              	HAL_TIM_PeriodElapsedCallback:
 3734              	.LVL239:
 3735              	.LFB59:
1062:Src/main.c    **** 
1063:Src/main.c    **** void HAL_TIM_PeriodElapsedCallback(TIM_HandleTypeDef *htim) {
 3736              		.loc 1 1063 61 is_stmt 1 view -0
 3737              		.cfi_startproc
 3738              		@ args = 0, pretend = 0, frame = 0
 3739              		@ frame_needed = 0, uses_anonymous_args = 0
1064:Src/main.c    **** 	if (htim->Instance == ALARM_CONTROL_TIMER) {
 3740              		.loc 1 1064 2 view .LVU1102
 3741              		.loc 1 1064 10 is_stmt 0 view .LVU1103
 3742 0000 0368     		ldr	r3, [r0]
 3743              		.loc 1 1064 5 view .LVU1104
 3744 0002 134A     		ldr	r2, .L329
1063:Src/main.c    **** 	if (htim->Instance == ALARM_CONTROL_TIMER) {
 3745              		.loc 1 1063 61 view .LVU1105
 3746 0004 10B5     		push	{r4, lr}
 3747              	.LCFI23:
 3748              		.cfi_def_cfa_offset 8
 3749              		.cfi_offset 4, -8
 3750              		.cfi_offset 14, -4
 3751              		.loc 1 1064 5 view .LVU1106
 3752 0006 9342     		cmp	r3, r2
 3753 0008 02D1     		bne	.L315
1065:Src/main.c    **** 		alarmTimerTick();
ARM GAS  D:\Temp\ccpUgK8Y.s 			page 99


 3754              		.loc 1 1065 3 is_stmt 1 view .LVU1107
 3755 000a FFF7FEFF 		bl	alarmTimerTick
 3756              	.LVL240:
 3757              	.L314:
1066:Src/main.c    **** 	}
1067:Src/main.c    **** 	else if (htim->Instance == LIGHT_CONTROL_TIMER) {
1068:Src/main.c    **** 		if (savedBrightness == 0) {
1069:Src/main.c    **** 			if (isWeakBrightness && adcValue[0] > STRONG_BRIGHTNESS_ADC_VALUE) {
1070:Src/main.c    **** 				isWeakBrightness = false;
1071:Src/main.c    **** 				if(strongBrightness > 0){
1072:Src/main.c    **** 					TM1637SetBrightness(strongBrightness);
1073:Src/main.c    **** 				}
1074:Src/main.c    **** 			}
1075:Src/main.c    **** 			else if (!isWeakBrightness && adcValue[0] < WEAK_BRIGHTNESS_ADC_VALUE) {
1076:Src/main.c    **** 				isWeakBrightness = true;
1077:Src/main.c    **** 				if(weakBrightness > 0){
1078:Src/main.c    **** 					TM1637SetBrightness(weakBrightness);
1079:Src/main.c    **** 				}
1080:Src/main.c    **** 			}
1081:Src/main.c    **** 		}
1082:Src/main.c    **** 	}
1083:Src/main.c    **** }
 3758              		.loc 1 1083 1 is_stmt 0 view .LVU1108
 3759              		@ sp needed
 3760 000e 10BD     		pop	{r4, pc}
 3761              	.LVL241:
 3762              	.L315:
1067:Src/main.c    **** 		if (savedBrightness == 0) {
 3763              		.loc 1 1067 7 is_stmt 1 view .LVU1109
1067:Src/main.c    **** 		if (savedBrightness == 0) {
 3764              		.loc 1 1067 10 is_stmt 0 view .LVU1110
 3765 0010 104A     		ldr	r2, .L329+4
 3766 0012 9342     		cmp	r3, r2
 3767 0014 FBD1     		bne	.L314
1068:Src/main.c    **** 			if (isWeakBrightness && adcValue[0] > STRONG_BRIGHTNESS_ADC_VALUE) {
 3768              		.loc 1 1068 3 is_stmt 1 view .LVU1111
1068:Src/main.c    **** 			if (isWeakBrightness && adcValue[0] > STRONG_BRIGHTNESS_ADC_VALUE) {
 3769              		.loc 1 1068 23 is_stmt 0 view .LVU1112
 3770 0016 104B     		ldr	r3, .L329+8
1068:Src/main.c    **** 			if (isWeakBrightness && adcValue[0] > STRONG_BRIGHTNESS_ADC_VALUE) {
 3771              		.loc 1 1068 6 view .LVU1113
 3772 0018 1978     		ldrb	r1, [r3]
 3773 001a 0029     		cmp	r1, #0
 3774 001c F7D1     		bne	.L314
1069:Src/main.c    **** 				isWeakBrightness = false;
 3775              		.loc 1 1069 4 is_stmt 1 view .LVU1114
1069:Src/main.c    **** 				isWeakBrightness = false;
 3776              		.loc 1 1069 36 is_stmt 0 discriminator 1 view .LVU1115
 3777 001e 0F4B     		ldr	r3, .L329+12
 3778 0020 1A68     		ldr	r2, [r3]
1069:Src/main.c    **** 				isWeakBrightness = false;
 3779              		.loc 1 1069 8 view .LVU1116
 3780 0022 0F4B     		ldr	r3, .L329+16
1069:Src/main.c    **** 				isWeakBrightness = false;
 3781              		.loc 1 1069 7 view .LVU1117
 3782 0024 1878     		ldrb	r0, [r3]
 3783              	.LVL242:
ARM GAS  D:\Temp\ccpUgK8Y.s 			page 100


1069:Src/main.c    **** 				isWeakBrightness = false;
 3784              		.loc 1 1069 7 view .LVU1118
 3785 0026 0028     		cmp	r0, #0
 3786 0028 0BD0     		beq	.L319
1069:Src/main.c    **** 				isWeakBrightness = false;
 3787              		.loc 1 1069 25 discriminator 1 view .LVU1119
 3788 002a AF20     		movs	r0, #175
 3789 002c 0001     		lsls	r0, r0, #4
 3790 002e 8242     		cmp	r2, r0
 3791 0030 EDD9     		bls	.L314
1070:Src/main.c    **** 				if(strongBrightness > 0){
 3792              		.loc 1 1070 5 is_stmt 1 view .LVU1120
1070:Src/main.c    **** 				if(strongBrightness > 0){
 3793              		.loc 1 1070 22 is_stmt 0 view .LVU1121
 3794 0032 1970     		strb	r1, [r3]
1071:Src/main.c    **** 					TM1637SetBrightness(strongBrightness);
 3795              		.loc 1 1071 5 is_stmt 1 view .LVU1122
1071:Src/main.c    **** 					TM1637SetBrightness(strongBrightness);
 3796              		.loc 1 1071 25 is_stmt 0 view .LVU1123
 3797 0034 0B4B     		ldr	r3, .L329+20
 3798              	.L328:
1077:Src/main.c    **** 					TM1637SetBrightness(weakBrightness);
 3799              		.loc 1 1077 23 view .LVU1124
 3800 0036 1878     		ldrb	r0, [r3]
1077:Src/main.c    **** 					TM1637SetBrightness(weakBrightness);
 3801              		.loc 1 1077 7 view .LVU1125
 3802 0038 0028     		cmp	r0, #0
 3803 003a E8D0     		beq	.L314
1078:Src/main.c    **** 				}
 3804              		.loc 1 1078 6 is_stmt 1 view .LVU1126
 3805 003c FFF7FEFF 		bl	TM1637SetBrightness
 3806              	.LVL243:
 3807              		.loc 1 1083 1 is_stmt 0 view .LVU1127
 3808 0040 E5E7     		b	.L314
 3809              	.L319:
1075:Src/main.c    **** 				isWeakBrightness = true;
 3810              		.loc 1 1075 9 is_stmt 1 view .LVU1128
1075:Src/main.c    **** 				isWeakBrightness = true;
 3811              		.loc 1 1075 31 is_stmt 0 discriminator 1 view .LVU1129
 3812 0042 0949     		ldr	r1, .L329+24
 3813 0044 8A42     		cmp	r2, r1
 3814 0046 E2D8     		bhi	.L314
1076:Src/main.c    **** 				if(weakBrightness > 0){
 3815              		.loc 1 1076 5 is_stmt 1 view .LVU1130
1076:Src/main.c    **** 				if(weakBrightness > 0){
 3816              		.loc 1 1076 22 is_stmt 0 view .LVU1131
 3817 0048 0122     		movs	r2, #1
 3818 004a 1A70     		strb	r2, [r3]
1077:Src/main.c    **** 					TM1637SetBrightness(weakBrightness);
 3819              		.loc 1 1077 5 is_stmt 1 view .LVU1132
1077:Src/main.c    **** 					TM1637SetBrightness(weakBrightness);
 3820              		.loc 1 1077 23 is_stmt 0 view .LVU1133
 3821 004c 074B     		ldr	r3, .L329+28
 3822 004e F2E7     		b	.L328
 3823              	.L330:
 3824              		.align	2
 3825              	.L329:
ARM GAS  D:\Temp\ccpUgK8Y.s 			page 101


 3826 0050 00480140 		.word	1073825792
 3827 0054 00440140 		.word	1073824768
 3828 0058 00000000 		.word	savedBrightness
 3829 005c 00000000 		.word	adcValue
 3830 0060 00000000 		.word	isWeakBrightness
 3831 0064 00000000 		.word	strongBrightness
 3832 0068 FB080000 		.word	2299
 3833 006c 00000000 		.word	weakBrightness
 3834              		.cfi_endproc
 3835              	.LFE59:
 3837              		.section	.text.Error_Handler,"ax",%progbits
 3838              		.align	1
 3839              		.global	Error_Handler
 3840              		.syntax unified
 3841              		.code	16
 3842              		.thumb_func
 3844              	Error_Handler:
 3845              	.LFB60:
1084:Src/main.c    **** /* USER CODE END 4 */
1085:Src/main.c    **** 
1086:Src/main.c    **** /**
1087:Src/main.c    ****   * @brief  This function is executed in case of error occurrence.
1088:Src/main.c    ****   * @retval None
1089:Src/main.c    ****   */
1090:Src/main.c    **** void Error_Handler(void)
1091:Src/main.c    **** {
 3846              		.loc 1 1091 1 is_stmt 1 view -0
 3847              		.cfi_startproc
 3848              		@ args = 0, pretend = 0, frame = 0
 3849              		@ frame_needed = 0, uses_anonymous_args = 0
 3850              		@ link register save eliminated.
1092:Src/main.c    ****   /* USER CODE BEGIN Error_Handler_Debug */
1093:Src/main.c    ****   /* User can add his own implementation to report the HAL error return state */
1094:Src/main.c    **** 
1095:Src/main.c    ****   /* USER CODE END Error_Handler_Debug */
1096:Src/main.c    **** }
 3851              		.loc 1 1096 1 view .LVU1135
 3852              		@ sp needed
 3853 0000 7047     		bx	lr
 3854              		.cfi_endproc
 3855              	.LFE60:
 3857              		.global	tempBuffer
 3858              		.section	.bss.tempBuffer,"aw",%nobits
 3859              		.align	1
 3862              	tempBuffer:
 3863 0000 00000000 		.space	18
 3863      00000000 
 3863      00000000 
 3863      00000000 
 3863      0000
 3864              		.global	tempBuffered
 3865              		.section	.bss.tempBuffered,"aw",%nobits
 3868              	tempBuffered:
 3869 0000 00       		.space	1
 3870              		.global	tempertureHideTime
 3871              		.section	.bss.tempertureHideTime,"aw",%nobits
 3874              	tempertureHideTime:
ARM GAS  D:\Temp\ccpUgK8Y.s 			page 102


 3875 0000 00       		.space	1
 3876              		.global	tempertureShowTime
 3877              		.section	.bss.tempertureShowTime,"aw",%nobits
 3880              	tempertureShowTime:
 3881 0000 00       		.space	1
 3882              		.global	temperture
 3883              		.section	.data.temperture,"aw"
 3886              	temperture:
 3887 0000 19       		.byte	25
 3888              		.global	setKeyRepeatReported
 3889              		.section	.bss.setKeyRepeatReported,"aw",%nobits
 3892              	setKeyRepeatReported:
 3893 0000 00       		.space	1
 3894              		.global	alarmBeepCount
 3895              		.section	.bss.alarmBeepCount,"aw",%nobits
 3896              		.align	2
 3899              	alarmBeepCount:
 3900 0000 00000000 		.space	4
 3901              		.global	alarmTimestamp
 3902              		.section	.bss.alarmTimestamp,"aw",%nobits
 3903              		.align	2
 3906              	alarmTimestamp:
 3907 0000 00000000 		.space	4
 3908              		.global	lastSetKeyPressReportTime
 3909              		.section	.bss.lastSetKeyPressReportTime,"aw",%nobits
 3910              		.align	2
 3913              	lastSetKeyPressReportTime:
 3914 0000 00000000 		.space	4
 3915              		.global	lastSetKeyPressTime
 3916              		.section	.bss.lastSetKeyPressTime,"aw",%nobits
 3917              		.align	2
 3920              	lastSetKeyPressTime:
 3921 0000 00000000 		.space	4
 3922              		.global	lastModeKeyPressTime
 3923              		.section	.bss.lastModeKeyPressTime,"aw",%nobits
 3924              		.align	2
 3927              	lastModeKeyPressTime:
 3928 0000 00000000 		.space	4
 3929              		.global	ringStartTime
 3930              		.section	.bss.ringStartTime,"aw",%nobits
 3931              		.align	2
 3934              	ringStartTime:
 3935 0000 00000000 		.space	4
 3936              		.global	lastRingOnTimeHour
 3937              		.section	.bss.lastRingOnTimeHour,"aw",%nobits
 3940              	lastRingOnTimeHour:
 3941 0000 00       		.space	1
 3942              		.global	ringOnTimeStop
 3943              		.section	.bss.ringOnTimeStop,"aw",%nobits
 3946              	ringOnTimeStop:
 3947 0000 00       		.space	1
 3948              		.global	ringOnTimeStart
 3949              		.section	.bss.ringOnTimeStart,"aw",%nobits
 3952              	ringOnTimeStart:
 3953 0000 00       		.space	1
 3954              		.global	isRingOnTimeEnabled
 3955              		.section	.bss.isRingOnTimeEnabled,"aw",%nobits
ARM GAS  D:\Temp\ccpUgK8Y.s 			page 103


 3958              	isRingOnTimeEnabled:
 3959 0000 00       		.space	1
 3960              		.global	alarmMin
 3961              		.section	.bss.alarmMin,"aw",%nobits
 3964              	alarmMin:
 3965 0000 00       		.space	1
 3966              		.global	alarmHour
 3967              		.section	.bss.alarmHour,"aw",%nobits
 3970              	alarmHour:
 3971 0000 00       		.space	1
 3972              		.global	isAlarming
 3973              		.section	.bss.isAlarming,"aw",%nobits
 3976              	isAlarming:
 3977 0000 00       		.space	1
 3978              		.global	isAlarmed
 3979              		.section	.bss.isAlarmed,"aw",%nobits
 3982              	isAlarmed:
 3983 0000 00       		.space	1
 3984              		.global	isAlarmEnabled
 3985              		.section	.bss.isAlarmEnabled,"aw",%nobits
 3988              	isAlarmEnabled:
 3989 0000 00       		.space	1
 3990              		.global	blinkControl
 3991              		.section	.bss.blinkControl,"aw",%nobits
 3994              	blinkControl:
 3995 0000 00       		.space	1
 3996              		.global	lastTime
 3997              		.section	.bss.lastTime,"aw",%nobits
 4000              	lastTime:
 4001 0000 00000000 		.space	8
 4001      00000000 
 4002              		.global	time
 4003              		.section	.bss.time,"aw",%nobits
 4006              	time:
 4007 0000 00000000 		.space	8
 4007      00000000 
 4008              		.global	weakBrightness
 4009              		.section	.bss.weakBrightness,"aw",%nobits
 4012              	weakBrightness:
 4013 0000 00       		.space	1
 4014              		.global	strongBrightness
 4015              		.section	.bss.strongBrightness,"aw",%nobits
 4018              	strongBrightness:
 4019 0000 00       		.space	1
 4020              		.global	isWeakBrightness
 4021              		.section	.data.isWeakBrightness,"aw"
 4024              	isWeakBrightness:
 4025 0000 01       		.byte	1
 4026              		.global	savedBrightness
 4027              		.section	.bss.savedBrightness,"aw",%nobits
 4030              	savedBrightness:
 4031 0000 00       		.space	1
 4032              		.global	adcValue
 4033              		.section	.bss.adcValue,"aw",%nobits
 4034              		.align	2
 4037              	adcValue:
 4038 0000 00000000 		.space	8
ARM GAS  D:\Temp\ccpUgK8Y.s 			page 104


 4038      00000000 
 4039              		.global	lastDisplayChangeTime
 4040              		.section	.bss.lastDisplayChangeTime,"aw",%nobits
 4041              		.align	2
 4044              	lastDisplayChangeTime:
 4045 0000 00000000 		.space	4
 4046              		.global	isInitCompleted
 4047              		.section	.bss.isInitCompleted,"aw",%nobits
 4050              	isInitCompleted:
 4051 0000 00       		.space	1
 4052              		.global	currentMode
 4053              		.section	.bss.currentMode,"aw",%nobits
 4056              	currentMode:
 4057 0000 00       		.space	1
 4058              		.global	tempertureMap
 4059              		.section	.rodata.tempertureMap,"a"
 4060              		.align	1
 4063              	tempertureMap:
 4064 0000 1E04     		.short	1054
 4065 0002 4304     		.short	1091
 4066 0004 6804     		.short	1128
 4067 0006 8D04     		.short	1165
 4068 0008 B304     		.short	1203
 4069 000a DA04     		.short	1242
 4070 000c 0005     		.short	1280
 4071 000e 2805     		.short	1320
 4072 0010 4F05     		.short	1359
 4073 0012 7705     		.short	1399
 4074 0014 9F05     		.short	1439
 4075 0016 C705     		.short	1479
 4076 0018 F005     		.short	1520
 4077 001a 1806     		.short	1560
 4078 001c 4106     		.short	1601
 4079 001e 6A06     		.short	1642
 4080 0020 9306     		.short	1683
 4081 0022 BC06     		.short	1724
 4082 0024 E506     		.short	1765
 4083 0026 0D07     		.short	1805
 4084 0028 3607     		.short	1846
 4085 002a 5F07     		.short	1887
 4086 002c 8707     		.short	1927
 4087 002e B007     		.short	1968
 4088 0030 D807     		.short	2008
 4089 0032 0008     		.short	2048
 4090 0034 2708     		.short	2087
 4091 0036 4E08     		.short	2126
 4092 0038 7508     		.short	2165
 4093 003a 9C08     		.short	2204
 4094 003c C208     		.short	2242
 4095 003e E808     		.short	2280
 4096 0040 0E09     		.short	2318
 4097 0042 3309     		.short	2355
 4098 0044 5709     		.short	2391
 4099 0046 7B09     		.short	2427
 4100 0048 9F09     		.short	2463
 4101 004a C209     		.short	2498
 4102 004c E509     		.short	2533
ARM GAS  D:\Temp\ccpUgK8Y.s 			page 105


 4103 004e 070A     		.short	2567
 4104 0050 290A     		.short	2601
 4105 0052 4A0A     		.short	2634
 4106 0054 6B0A     		.short	2667
 4107 0056 8B0A     		.short	2699
 4108 0058 AA0A     		.short	2730
 4109 005a C90A     		.short	2761
 4110 005c E70A     		.short	2791
 4111 005e 050B     		.short	2821
 4112 0060 220B     		.short	2850
 4113 0062 3F0B     		.short	2879
 4114 0064 5B0B     		.short	2907
 4115 0066 770B     		.short	2935
 4116 0068 920B     		.short	2962
 4117 006a AC0B     		.short	2988
 4118 006c C60B     		.short	3014
 4119 006e E00B     		.short	3040
 4120 0070 F80B     		.short	3064
 4121 0072 110C     		.short	3089
 4122 0074 290C     		.short	3113
 4123 0076 400C     		.short	3136
 4124 0078 560C     		.short	3158
 4125 007a 6D0C     		.short	3181
 4126 007c 820C     		.short	3202
 4127 007e 980C     		.short	3224
 4128 0080 AC0C     		.short	3244
 4129 0082 C00C     		.short	3264
 4130 0084 D40C     		.short	3284
 4131 0086 E70C     		.short	3303
 4132 0088 FA0C     		.short	3322
 4133 008a 0D0D     		.short	3341
 4134 008c 1F0D     		.short	3359
 4135 008e 300D     		.short	3376
 4136 0090 410D     		.short	3393
 4137 0092 520D     		.short	3410
 4138 0094 620D     		.short	3426
 4139 0096 720D     		.short	3442
 4140 0098 810D     		.short	3457
 4141 009a 900D     		.short	3472
 4142 009c 9F0D     		.short	3487
 4143 009e AD0D     		.short	3501
 4144 00a0 BB0D     		.short	3515
 4145 00a2 C90D     		.short	3529
 4146 00a4 D60D     		.short	3542
 4147 00a6 E30D     		.short	3555
 4148 00a8 F00D     		.short	3568
 4149 00aa FC0D     		.short	3580
 4150 00ac 080E     		.short	3592
 4151 00ae 130E     		.short	3603
 4152 00b0 1F0E     		.short	3615
 4153 00b2 2A0E     		.short	3626
 4154 00b4 350E     		.short	3637
 4155 00b6 3F0E     		.short	3647
 4156 00b8 490E     		.short	3657
 4157 00ba 530E     		.short	3667
 4158 00bc 5D0E     		.short	3677
 4159 00be 670E     		.short	3687
ARM GAS  D:\Temp\ccpUgK8Y.s 			page 106


 4160 00c0 700E     		.short	3696
 4161 00c2 790E     		.short	3705
 4162 00c4 820E     		.short	3714
 4163 00c6 8A0E     		.short	3722
 4164 00c8 920E     		.short	3730
 4165 00ca 9B0E     		.short	3739
 4166 00cc A30E     		.short	3747
 4167 00ce AA0E     		.short	3754
 4168 00d0 B20E     		.short	3762
 4169 00d2 B90E     		.short	3769
 4170 00d4 C00E     		.short	3776
 4171 00d6 C70E     		.short	3783
 4172 00d8 CE0E     		.short	3790
 4173 00da D50E     		.short	3797
 4174 00dc DB0E     		.short	3803
 4175 00de E10E     		.short	3809
 4176 00e0 E70E     		.short	3815
 4177 00e2 ED0E     		.short	3821
 4178 00e4 F30E     		.short	3827
 4179 00e6 F90E     		.short	3833
 4180 00e8 FF0E     		.short	3839
 4181 00ea 040F     		.short	3844
 4182 00ec 090F     		.short	3849
 4183 00ee 0E0F     		.short	3854
 4184 00f0 130F     		.short	3859
 4185 00f2 180F     		.short	3864
 4186 00f4 1D0F     		.short	3869
 4187 00f6 220F     		.short	3874
 4188 00f8 260F     		.short	3878
 4189 00fa 2B0F     		.short	3883
 4190              		.text
 4191              	.Letext0:
 4192              		.file 2 "D:\\STM32CubeCLT\\STM32CubeCLT_1.18.0\\GNU-tools-for-STM32\\bin\\../lib/gcc/arm-none-eabi
 4193              		.file 3 "D:\\STM32CubeCLT\\STM32CubeCLT_1.18.0\\GNU-tools-for-STM32\\bin\\../lib/gcc/arm-none-eabi
 4194              		.file 4 "Drivers/CMSIS/Device/ST/STM32F0xx/Include/stm32f030x6.h"
 4195              		.file 5 "Drivers/CMSIS/Device/ST/STM32F0xx/Include/stm32f0xx.h"
 4196              		.file 6 "Drivers/STM32F0xx_HAL_Driver/Inc/stm32f0xx_hal_def.h"
 4197              		.file 7 "Drivers/STM32F0xx_HAL_Driver/Inc/stm32f0xx_hal_rcc.h"
 4198              		.file 8 "Drivers/STM32F0xx_HAL_Driver/Inc/stm32f0xx_hal_rcc_ex.h"
 4199              		.file 9 "Drivers/STM32F0xx_HAL_Driver/Inc/stm32f0xx_hal_gpio.h"
 4200              		.file 10 "Drivers/STM32F0xx_HAL_Driver/Inc/stm32f0xx_hal_dma.h"
 4201              		.file 11 "Drivers/STM32F0xx_HAL_Driver/Inc/stm32f0xx_hal_adc.h"
 4202              		.file 12 "Drivers/STM32F0xx_HAL_Driver/Inc/stm32f0xx_hal_tim.h"
 4203              		.file 13 "Inc/adc.h"
 4204              		.file 14 "Inc/tim.h"
 4205              		.file 15 "Lib/SD3077.h"
 4206              		.file 16 "Drivers/STM32F0xx_HAL_Driver/Inc/stm32f0xx_hal_adc_ex.h"
 4207              		.file 17 "Lib/TM1637.h"
 4208              		.file 18 "Inc/i2c.h"
 4209              		.file 19 "Inc/dma.h"
 4210              		.file 20 "Inc/gpio.h"
 4211              		.file 21 "Drivers/STM32F0xx_HAL_Driver/Inc/stm32f0xx_hal.h"
 4212              		.file 22 "<built-in>"
ARM GAS  D:\Temp\ccpUgK8Y.s 			page 107


DEFINED SYMBOLS
                            *ABS*:00000000 main.c
  D:\Temp\ccpUgK8Y.s:19     .text.readBackupSettings:00000000 $t
  D:\Temp\ccpUgK8Y.s:25     .text.readBackupSettings:00000000 readBackupSettings
  D:\Temp\ccpUgK8Y.s:96     .text.readBackupSettings:00000038 $d
  D:\Temp\ccpUgK8Y.s:3970   .bss.alarmHour:00000000 alarmHour
  D:\Temp\ccpUgK8Y.s:3964   .bss.alarmMin:00000000 alarmMin
  D:\Temp\ccpUgK8Y.s:3988   .bss.isAlarmEnabled:00000000 isAlarmEnabled
  D:\Temp\ccpUgK8Y.s:103    .text.saveSettings:00000000 $t
  D:\Temp\ccpUgK8Y.s:109    .text.saveSettings:00000000 saveSettings
  D:\Temp\ccpUgK8Y.s:180    .text.saveSettings:00000058 $d
  D:\Temp\ccpUgK8Y.s:3880   .bss.tempertureShowTime:00000000 tempertureShowTime
  D:\Temp\ccpUgK8Y.s:3874   .bss.tempertureHideTime:00000000 tempertureHideTime
  D:\Temp\ccpUgK8Y.s:3958   .bss.isRingOnTimeEnabled:00000000 isRingOnTimeEnabled
  D:\Temp\ccpUgK8Y.s:3952   .bss.ringOnTimeStart:00000000 ringOnTimeStart
  D:\Temp\ccpUgK8Y.s:3946   .bss.ringOnTimeStop:00000000 ringOnTimeStop
  D:\Temp\ccpUgK8Y.s:4030   .bss.savedBrightness:00000000 savedBrightness
  D:\Temp\ccpUgK8Y.s:4018   .bss.strongBrightness:00000000 strongBrightness
  D:\Temp\ccpUgK8Y.s:4012   .bss.weakBrightness:00000000 weakBrightness
  D:\Temp\ccpUgK8Y.s:196    .text.resetSettings:00000000 $t
  D:\Temp\ccpUgK8Y.s:202    .text.resetSettings:00000000 resetSettings
  D:\Temp\ccpUgK8Y.s:270    .text.resetSettings:0000003c $d
  D:\Temp\ccpUgK8Y.s:285    .text.checkRingOnTime:00000000 $t
  D:\Temp\ccpUgK8Y.s:291    .text.checkRingOnTime:00000000 checkRingOnTime
  D:\Temp\ccpUgK8Y.s:405    .text.checkRingOnTime:00000068 $d
  D:\Temp\ccpUgK8Y.s:4006   .bss.time:00000000 time
  D:\Temp\ccpUgK8Y.s:3940   .bss.lastRingOnTimeHour:00000000 lastRingOnTimeHour
  D:\Temp\ccpUgK8Y.s:3934   .bss.ringStartTime:00000000 ringStartTime
  D:\Temp\ccpUgK8Y.s:420    .text.alarmStart:00000000 $t
  D:\Temp\ccpUgK8Y.s:426    .text.alarmStart:00000000 alarmStart
  D:\Temp\ccpUgK8Y.s:462    .text.alarmStart:00000014 $d
  D:\Temp\ccpUgK8Y.s:3976   .bss.isAlarming:00000000 isAlarming
  D:\Temp\ccpUgK8Y.s:3982   .bss.isAlarmed:00000000 isAlarmed
  D:\Temp\ccpUgK8Y.s:469    .text.alarmTimerTick:00000000 $t
  D:\Temp\ccpUgK8Y.s:475    .text.alarmTimerTick:00000000 alarmTimerTick
  D:\Temp\ccpUgK8Y.s:597    .text.alarmTimerTick:00000070 $d
  D:\Temp\ccpUgK8Y.s:3906   .bss.alarmTimestamp:00000000 alarmTimestamp
  D:\Temp\ccpUgK8Y.s:3899   .bss.alarmBeepCount:00000000 alarmBeepCount
  D:\Temp\ccpUgK8Y.s:603    .text.alarmStop:00000000 $t
  D:\Temp\ccpUgK8Y.s:609    .text.alarmStop:00000000 alarmStop
  D:\Temp\ccpUgK8Y.s:647    .text.alarmStop:0000001c $d
  D:\Temp\ccpUgK8Y.s:653    .text.checkAlarm:00000000 $t
  D:\Temp\ccpUgK8Y.s:659    .text.checkAlarm:00000000 checkAlarm
  D:\Temp\ccpUgK8Y.s:742    .text.checkAlarm:00000050 $d
  D:\Temp\ccpUgK8Y.s:752    .text.refreshTemperture:00000000 $t
  D:\Temp\ccpUgK8Y.s:758    .text.refreshTemperture:00000000 refreshTemperture
  D:\Temp\ccpUgK8Y.s:889    .text.refreshTemperture:00000050 $d
  D:\Temp\ccpUgK8Y.s:4037   .bss.adcValue:00000000 adcValue
  D:\Temp\ccpUgK8Y.s:3868   .bss.tempBuffered:00000000 tempBuffered
  D:\Temp\ccpUgK8Y.s:3862   .bss.tempBuffer:00000000 tempBuffer
  D:\Temp\ccpUgK8Y.s:4063   .rodata.tempertureMap:00000000 tempertureMap
  D:\Temp\ccpUgK8Y.s:3886   .data.temperture:00000000 temperture
  D:\Temp\ccpUgK8Y.s:900    .text.refreshTimeDisplay:00000000 $t
  D:\Temp\ccpUgK8Y.s:906    .text.refreshTimeDisplay:00000000 refreshTimeDisplay
  D:\Temp\ccpUgK8Y.s:1080   .text.refreshTimeDisplay:000000d4 $d
  D:\Temp\ccpUgK8Y.s:4000   .bss.lastTime:00000000 lastTime
  D:\Temp\ccpUgK8Y.s:4056   .bss.currentMode:00000000 currentMode
ARM GAS  D:\Temp\ccpUgK8Y.s 			page 108


  D:\Temp\ccpUgK8Y.s:3994   .bss.blinkControl:00000000 blinkControl
  D:\Temp\ccpUgK8Y.s:1089   .text.refreshSettingsDisplay:00000000 $t
  D:\Temp\ccpUgK8Y.s:1095   .text.refreshSettingsDisplay:00000000 refreshSettingsDisplay
  D:\Temp\ccpUgK8Y.s:1126   .text.refreshSettingsDisplay:00000012 $d
  D:\Temp\ccpUgK8Y.s:1139   .text.refreshSettingsDisplay:0000002c $t
  D:\Temp\ccpUgK8Y.s:1754   .text.refreshSettingsDisplay:0000028c $d
  D:\Temp\ccpUgK8Y.s:1772   .text.modeKeyClicked:00000000 $t
  D:\Temp\ccpUgK8Y.s:1778   .text.modeKeyClicked:00000000 modeKeyClicked
  D:\Temp\ccpUgK8Y.s:1816   .text.modeKeyClicked:0000001c $d
  D:\Temp\ccpUgK8Y.s:1832   .text.modeKeyClicked:0000002c $t
  D:\Temp\ccpUgK8Y.s:2062   .text.modeKeyClicked:00000118 $d
  D:\Temp\ccpUgK8Y.s:4024   .data.isWeakBrightness:00000000 isWeakBrightness
  D:\Temp\ccpUgK8Y.s:4044   .bss.lastDisplayChangeTime:00000000 lastDisplayChangeTime
  D:\Temp\ccpUgK8Y.s:2080   .text.modeKeyLongPressed:00000000 $t
  D:\Temp\ccpUgK8Y.s:2086   .text.modeKeyLongPressed:00000000 modeKeyLongPressed
  D:\Temp\ccpUgK8Y.s:2143   .text.modeKeyLongPressed:0000002c $d
  D:\Temp\ccpUgK8Y.s:2152   .text.setKeyClicked:00000000 $t
  D:\Temp\ccpUgK8Y.s:2158   .text.setKeyClicked:00000000 setKeyClicked
  D:\Temp\ccpUgK8Y.s:2194   .text.setKeyClicked:0000001c $d
  D:\Temp\ccpUgK8Y.s:2210   .text.setKeyClicked:0000002c $t
  D:\Temp\ccpUgK8Y.s:2440   .text.setKeyClicked:00000118 $d
  D:\Temp\ccpUgK8Y.s:2460   .text.setKeyPresseRepeatReport:00000000 $t
  D:\Temp\ccpUgK8Y.s:2466   .text.setKeyPresseRepeatReport:00000000 setKeyPresseRepeatReport
  D:\Temp\ccpUgK8Y.s:2493   .text.setKeyPresseRepeatReport:00000016 $d
  D:\Temp\ccpUgK8Y.s:2637   .text.setKeyPresseRepeatReport:000000a4 $d
  D:\Temp\ccpUgK8Y.s:3892   .bss.setKeyRepeatReported:00000000 setKeyRepeatReported
  D:\Temp\ccpUgK8Y.s:2651   .text.setKeyPressed:00000000 $t
  D:\Temp\ccpUgK8Y.s:2657   .text.setKeyPressed:00000000 setKeyPressed
  D:\Temp\ccpUgK8Y.s:2683   .text.setKeyPressed:0000000c $d
  D:\Temp\ccpUgK8Y.s:3920   .bss.lastSetKeyPressTime:00000000 lastSetKeyPressTime
  D:\Temp\ccpUgK8Y.s:2688   .text.setKeyReleased:00000000 $t
  D:\Temp\ccpUgK8Y.s:2694   .text.setKeyReleased:00000000 setKeyReleased
  D:\Temp\ccpUgK8Y.s:2749   .text.setKeyReleased:00000028 $d
  D:\Temp\ccpUgK8Y.s:2755   .text.modeKeyPressed:00000000 $t
  D:\Temp\ccpUgK8Y.s:2761   .text.modeKeyPressed:00000000 modeKeyPressed
  D:\Temp\ccpUgK8Y.s:2787   .text.modeKeyPressed:0000000c $d
  D:\Temp\ccpUgK8Y.s:3927   .bss.lastModeKeyPressTime:00000000 lastModeKeyPressTime
  D:\Temp\ccpUgK8Y.s:2792   .text.modeKeyReleased:00000000 $t
  D:\Temp\ccpUgK8Y.s:2798   .text.modeKeyReleased:00000000 modeKeyReleased
  D:\Temp\ccpUgK8Y.s:2854   .text.modeKeyReleased:0000002c $d
  D:\Temp\ccpUgK8Y.s:2859   .text.SystemClock_Config:00000000 $t
  D:\Temp\ccpUgK8Y.s:2865   .text.SystemClock_Config:00000000 SystemClock_Config
  D:\Temp\ccpUgK8Y.s:2989   .text.startup.main:00000000 $t
  D:\Temp\ccpUgK8Y.s:2995   .text.startup.main:00000000 main
  D:\Temp\ccpUgK8Y.s:3573   .text.startup.main:00000258 $d
  D:\Temp\ccpUgK8Y.s:4050   .bss.isInitCompleted:00000000 isInitCompleted
  D:\Temp\ccpUgK8Y.s:3913   .bss.lastSetKeyPressReportTime:00000000 lastSetKeyPressReportTime
  D:\Temp\ccpUgK8Y.s:3602   .text.HAL_GPIO_EXTI_Callback:00000000 $t
  D:\Temp\ccpUgK8Y.s:3608   .text.HAL_GPIO_EXTI_Callback:00000000 HAL_GPIO_EXTI_Callback
  D:\Temp\ccpUgK8Y.s:3720   .text.HAL_GPIO_EXTI_Callback:0000006c $d
  D:\Temp\ccpUgK8Y.s:3727   .text.HAL_TIM_PeriodElapsedCallback:00000000 $t
  D:\Temp\ccpUgK8Y.s:3733   .text.HAL_TIM_PeriodElapsedCallback:00000000 HAL_TIM_PeriodElapsedCallback
  D:\Temp\ccpUgK8Y.s:3826   .text.HAL_TIM_PeriodElapsedCallback:00000050 $d
  D:\Temp\ccpUgK8Y.s:3838   .text.Error_Handler:00000000 $t
  D:\Temp\ccpUgK8Y.s:3844   .text.Error_Handler:00000000 Error_Handler
  D:\Temp\ccpUgK8Y.s:3859   .bss.tempBuffer:00000000 $d
  D:\Temp\ccpUgK8Y.s:3869   .bss.tempBuffered:00000000 $d
ARM GAS  D:\Temp\ccpUgK8Y.s 			page 109


  D:\Temp\ccpUgK8Y.s:3875   .bss.tempertureHideTime:00000000 $d
  D:\Temp\ccpUgK8Y.s:3881   .bss.tempertureShowTime:00000000 $d
  D:\Temp\ccpUgK8Y.s:3893   .bss.setKeyRepeatReported:00000000 $d
  D:\Temp\ccpUgK8Y.s:3896   .bss.alarmBeepCount:00000000 $d
  D:\Temp\ccpUgK8Y.s:3903   .bss.alarmTimestamp:00000000 $d
  D:\Temp\ccpUgK8Y.s:3910   .bss.lastSetKeyPressReportTime:00000000 $d
  D:\Temp\ccpUgK8Y.s:3917   .bss.lastSetKeyPressTime:00000000 $d
  D:\Temp\ccpUgK8Y.s:3924   .bss.lastModeKeyPressTime:00000000 $d
  D:\Temp\ccpUgK8Y.s:3931   .bss.ringStartTime:00000000 $d
  D:\Temp\ccpUgK8Y.s:3941   .bss.lastRingOnTimeHour:00000000 $d
  D:\Temp\ccpUgK8Y.s:3947   .bss.ringOnTimeStop:00000000 $d
  D:\Temp\ccpUgK8Y.s:3953   .bss.ringOnTimeStart:00000000 $d
  D:\Temp\ccpUgK8Y.s:3959   .bss.isRingOnTimeEnabled:00000000 $d
  D:\Temp\ccpUgK8Y.s:3965   .bss.alarmMin:00000000 $d
  D:\Temp\ccpUgK8Y.s:3971   .bss.alarmHour:00000000 $d
  D:\Temp\ccpUgK8Y.s:3977   .bss.isAlarming:00000000 $d
  D:\Temp\ccpUgK8Y.s:3983   .bss.isAlarmed:00000000 $d
  D:\Temp\ccpUgK8Y.s:3989   .bss.isAlarmEnabled:00000000 $d
  D:\Temp\ccpUgK8Y.s:3995   .bss.blinkControl:00000000 $d
  D:\Temp\ccpUgK8Y.s:4001   .bss.lastTime:00000000 $d
  D:\Temp\ccpUgK8Y.s:4007   .bss.time:00000000 $d
  D:\Temp\ccpUgK8Y.s:4013   .bss.weakBrightness:00000000 $d
  D:\Temp\ccpUgK8Y.s:4019   .bss.strongBrightness:00000000 $d
  D:\Temp\ccpUgK8Y.s:4031   .bss.savedBrightness:00000000 $d
  D:\Temp\ccpUgK8Y.s:4034   .bss.adcValue:00000000 $d
  D:\Temp\ccpUgK8Y.s:4041   .bss.lastDisplayChangeTime:00000000 $d
  D:\Temp\ccpUgK8Y.s:4051   .bss.isInitCompleted:00000000 $d
  D:\Temp\ccpUgK8Y.s:4057   .bss.currentMode:00000000 $d
  D:\Temp\ccpUgK8Y.s:4060   .rodata.tempertureMap:00000000 $d
  D:\Temp\ccpUgK8Y.s:2506   .text.setKeyPresseRepeatReport:00000023 $d
  D:\Temp\ccpUgK8Y.s:2506   .text.setKeyPresseRepeatReport:00000024 $t

UNDEFINED SYMBOLS
ReadBackData
WriteBackData
HAL_GetTick
HAL_GPIO_WritePin
HAL_TIM_Base_Start_IT
htim17
HAL_GPIO_ReadPin
HAL_TIM_Base_Stop_IT
__aeabi_uidiv
__aeabi_uidivmod
TimeNow
memcpy
TM1637ShowNumberRight
TM1637SetChar
__gnu_thumb1_case_uhi
__gnu_thumb1_case_uqi
SetInterruptOuput
SetTime
TM1637SetBrightness
EnableSencodInterruptOuput
memset
HAL_RCC_OscConfig
HAL_RCC_ClockConfig
HAL_RCCEx_PeriphCLKConfig
ARM GAS  D:\Temp\ccpUgK8Y.s 			page 110


HAL_Init
MX_GPIO_Init
MX_DMA_Init
MX_I2C1_Init
MX_ADC_Init
MX_TIM17_Init
MX_TIM3_Init
MX_TIM16_Init
TM1637Init
HAL_ADCEx_Calibration_Start
HAL_ADC_Start_DMA
HAL_TIM_Base_Start
hadc
htim3
htim16
