ARM GAS  D:\Temp\ccqeondb.s 			page 1


   1              		.cpu cortex-m0
   2              		.arch armv6s-m
   3              		.fpu softvfp
   4              		.eabi_attribute 20, 1
   5              		.eabi_attribute 21, 1
   6              		.eabi_attribute 23, 3
   7              		.eabi_attribute 24, 1
   8              		.eabi_attribute 25, 1
   9              		.eabi_attribute 26, 1
  10              		.eabi_attribute 30, 4
  11              		.eabi_attribute 34, 0
  12              		.eabi_attribute 18, 4
  13              		.file	"SD3077.c"
  14              		.text
  15              	.Ltext0:
  16              		.cfi_sections	.debug_frame
  17              		.file 1 "Lib/SD3077.c"
  18              		.section	.text.UnlockWriteProtect,"ax",%progbits
  19              		.align	1
  20              		.syntax unified
  21              		.code	16
  22              		.thumb_func
  24              	UnlockWriteProtect:
  25              	.LFB39:
   1:Lib/SD3077.c  **** #include "SD3077.h"
   2:Lib/SD3077.c  **** 
   3:Lib/SD3077.c  **** static uint8_t bcd2bin (uint8_t val) { return val - 6 * (val >> 4); }
   4:Lib/SD3077.c  **** static uint8_t bin2bcd (uint8_t val) { return val + 6 * (val / 10); }
   5:Lib/SD3077.c  **** 
   6:Lib/SD3077.c  **** static void UnlockWriteProtect(){
  26              		.loc 1 6 33 view -0
  27              		.cfi_startproc
  28              		@ args = 0, pretend = 0, frame = 8
  29              		@ frame_needed = 0, uses_anonymous_args = 0
   7:Lib/SD3077.c  **** 	// 读出控制寄存器中的数据
   8:Lib/SD3077.c  **** 	uint8_t srcData[2];
  30              		.loc 1 8 2 view .LVU1
   9:Lib/SD3077.c  **** 	HAL_I2C_Mem_Read(&SD3077_IIC_HANDLE, SD3077_IIC_ADDR_READ, 0x0F, 1, srcData, 2, HAL_MAX_DELAY);
  31              		.loc 1 9 2 view .LVU2
   6:Lib/SD3077.c  **** 	// 读出控制寄存器中的数据
  32              		.loc 1 6 33 is_stmt 0 view .LVU3
  33 0000 F0B5     		push	{r4, r5, r6, r7, lr}
  34              	.LCFI0:
  35              		.cfi_def_cfa_offset 20
  36              		.cfi_offset 4, -20
  37              		.cfi_offset 5, -16
  38              		.cfi_offset 6, -12
  39              		.cfi_offset 7, -8
  40              		.cfi_offset 14, -4
  41              		.loc 1 9 2 view .LVU4
  42 0002 0125     		movs	r5, #1
  43 0004 0223     		movs	r3, #2
   6:Lib/SD3077.c  **** 	// 读出控制寄存器中的数据
  44              		.loc 1 6 33 view .LVU5
  45 0006 87B0     		sub	sp, sp, #28
  46              	.LCFI1:
  47              		.cfi_def_cfa_offset 48
ARM GAS  D:\Temp\ccqeondb.s 			page 2


  48              		.loc 1 9 2 view .LVU6
  49 0008 1E4C     		ldr	r4, .L2
  50 000a 05AF     		add	r7, sp, #20
  51 000c 6D42     		rsbs	r5, r5, #0
  52 000e 0295     		str	r5, [sp, #8]
  53 0010 0193     		str	r3, [sp, #4]
  54 0012 0F22     		movs	r2, #15
  55 0014 5B19     		adds	r3, r3, r5
  56 0016 6521     		movs	r1, #101
  57 0018 2000     		movs	r0, r4
  58 001a 0097     		str	r7, [sp]
  59 001c FFF7FEFF 		bl	HAL_I2C_Mem_Read
  60              	.LVL0:
  10:Lib/SD3077.c  **** 
  11:Lib/SD3077.c  **** 	// 更改后写入
  12:Lib/SD3077.c  **** 	uint8_t data = srcData[1] | 0x80;
  61              		.loc 1 12 2 is_stmt 1 view .LVU7
  62              		.loc 1 12 10 is_stmt 0 view .LVU8
  63 0020 8023     		movs	r3, #128
  64 0022 1326     		movs	r6, #19
  65 0024 7A78     		ldrb	r2, [r7, #1]
  66 0026 5B42     		rsbs	r3, r3, #0
  67 0028 6E44     		add	r6, r6, sp
  68 002a 1343     		orrs	r3, r2
  69 002c 3370     		strb	r3, [r6]
  13:Lib/SD3077.c  **** 	HAL_I2C_Mem_Write(&SD3077_IIC_HANDLE, SD3077_IIC_ADDR_WRITE, 0x10, 1, &data, 1, HAL_MAX_DELAY);
  70              		.loc 1 13 2 is_stmt 1 view .LVU9
  71 002e 0295     		str	r5, [sp, #8]
  72 0030 0235     		adds	r5, r5, #2
  73 0032 2B00     		movs	r3, r5
  74 0034 1022     		movs	r2, #16
  75 0036 6421     		movs	r1, #100
  76 0038 2000     		movs	r0, r4
  77 003a 0195     		str	r5, [sp, #4]
  78 003c 0096     		str	r6, [sp]
  79 003e FFF7FEFF 		bl	HAL_I2C_Mem_Write
  80              	.LVL1:
  14:Lib/SD3077.c  **** 	data = srcData[0] | 0x04;
  81              		.loc 1 14 2 view .LVU10
  82              		.loc 1 14 7 is_stmt 0 view .LVU11
  83 0042 0423     		movs	r3, #4
  84 0044 3A78     		ldrb	r2, [r7]
  15:Lib/SD3077.c  **** 	HAL_I2C_Mem_Write(&SD3077_IIC_HANDLE, SD3077_IIC_ADDR_WRITE, 0x0F, 1, &data, 1, HAL_MAX_DELAY);
  85              		.loc 1 15 2 view .LVU12
  86 0046 6421     		movs	r1, #100
  14:Lib/SD3077.c  **** 	data = srcData[0] | 0x04;
  87              		.loc 1 14 7 view .LVU13
  88 0048 1343     		orrs	r3, r2
  89 004a 3370     		strb	r3, [r6]
  90              		.loc 1 15 2 is_stmt 1 view .LVU14
  91 004c 0123     		movs	r3, #1
  92 004e 5B42     		rsbs	r3, r3, #0
  93 0050 0293     		str	r3, [sp, #8]
  94 0052 0F22     		movs	r2, #15
  95 0054 2B00     		movs	r3, r5
  96 0056 2000     		movs	r0, r4
  97 0058 0195     		str	r5, [sp, #4]
ARM GAS  D:\Temp\ccqeondb.s 			page 3


  98 005a 0096     		str	r6, [sp]
  99 005c FFF7FEFF 		bl	HAL_I2C_Mem_Write
 100              	.LVL2:
  16:Lib/SD3077.c  **** 	data = srcData[0] | 0x84;
 101              		.loc 1 16 2 view .LVU15
 102              		.loc 1 16 7 is_stmt 0 view .LVU16
 103 0060 7C23     		movs	r3, #124
 104 0062 3A78     		ldrb	r2, [r7]
 105 0064 5B42     		rsbs	r3, r3, #0
 106 0066 1343     		orrs	r3, r2
 107 0068 3370     		strb	r3, [r6]
  17:Lib/SD3077.c  **** 	HAL_I2C_Mem_Write(&SD3077_IIC_HANDLE, SD3077_IIC_ADDR_WRITE, 0x0F, 1, &data, 1, HAL_MAX_DELAY);
 108              		.loc 1 17 2 is_stmt 1 view .LVU17
 109 006a 0123     		movs	r3, #1
 110 006c 5B42     		rsbs	r3, r3, #0
 111 006e 0293     		str	r3, [sp, #8]
 112 0070 0F22     		movs	r2, #15
 113 0072 2B00     		movs	r3, r5
 114 0074 6421     		movs	r1, #100
 115 0076 2000     		movs	r0, r4
 116 0078 0195     		str	r5, [sp, #4]
 117 007a 0096     		str	r6, [sp]
 118 007c FFF7FEFF 		bl	HAL_I2C_Mem_Write
 119              	.LVL3:
  18:Lib/SD3077.c  **** }
 120              		.loc 1 18 1 is_stmt 0 view .LVU18
 121 0080 07B0     		add	sp, sp, #28
 122              		@ sp needed
 123 0082 F0BD     		pop	{r4, r5, r6, r7, pc}
 124              	.L3:
 125              		.align	2
 126              	.L2:
 127 0084 00000000 		.word	hi2c1
 128              		.cfi_endproc
 129              	.LFE39:
 131              		.section	.text.TimeNow,"ax",%progbits
 132              		.align	1
 133              		.global	TimeNow
 134              		.syntax unified
 135              		.code	16
 136              		.thumb_func
 138              	TimeNow:
 139              	.LVL4:
 140              	.LFB40:
  19:Lib/SD3077.c  **** 
  20:Lib/SD3077.c  **** void TimeNow(DateTime *dateTime){
 141              		.loc 1 20 33 is_stmt 1 view -0
 142              		.cfi_startproc
 143              		@ args = 0, pretend = 0, frame = 8
 144              		@ frame_needed = 0, uses_anonymous_args = 0
  21:Lib/SD3077.c  **** 	uint8_t data[7];
 145              		.loc 1 21 2 view .LVU20
  22:Lib/SD3077.c  **** 	HAL_I2C_Mem_Read(&SD3077_IIC_HANDLE, SD3077_IIC_ADDR_READ, 0x00, 1, data, 7, HAL_MAX_DELAY);
 146              		.loc 1 22 2 view .LVU21
 147 0000 0123     		movs	r3, #1
  20:Lib/SD3077.c  **** 	uint8_t data[7];
 148              		.loc 1 20 33 is_stmt 0 view .LVU22
ARM GAS  D:\Temp\ccqeondb.s 			page 4


 149 0002 30B5     		push	{r4, r5, lr}
 150              	.LCFI2:
 151              		.cfi_def_cfa_offset 12
 152              		.cfi_offset 4, -12
 153              		.cfi_offset 5, -8
 154              		.cfi_offset 14, -4
 155              		.loc 1 22 2 view .LVU23
 156 0004 5B42     		rsbs	r3, r3, #0
  20:Lib/SD3077.c  **** 	uint8_t data[7];
 157              		.loc 1 20 33 view .LVU24
 158 0006 87B0     		sub	sp, sp, #28
 159              	.LCFI3:
 160              		.cfi_def_cfa_offset 40
 161              		.loc 1 22 2 view .LVU25
 162 0008 04AD     		add	r5, sp, #16
 163 000a 0293     		str	r3, [sp, #8]
 164 000c 0833     		adds	r3, r3, #8
  20:Lib/SD3077.c  **** 	uint8_t data[7];
 165              		.loc 1 20 33 view .LVU26
 166 000e 0400     		movs	r4, r0
 167              		.loc 1 22 2 view .LVU27
 168 0010 0022     		movs	r2, #0
 169 0012 6521     		movs	r1, #101
 170 0014 0193     		str	r3, [sp, #4]
 171 0016 2148     		ldr	r0, .L7
 172              	.LVL5:
 173              		.loc 1 22 2 view .LVU28
 174 0018 063B     		subs	r3, r3, #6
 175 001a 0095     		str	r5, [sp]
 176 001c FFF7FEFF 		bl	HAL_I2C_Mem_Read
 177              	.LVL6:
  23:Lib/SD3077.c  **** 	dateTime->seconds = bcd2bin(data[0]);
 178              		.loc 1 23 2 is_stmt 1 view .LVU29
 179              	.LBB32:
 180              	.LBB33:
   3:Lib/SD3077.c  **** static uint8_t bin2bcd (uint8_t val) { return val + 6 * (val / 10); }
 181              		.loc 1 3 51 is_stmt 0 view .LVU30
 182 0020 0622     		movs	r2, #6
 183              	.LBE33:
 184              	.LBE32:
 185              		.loc 1 23 22 view .LVU31
 186 0022 2B78     		ldrb	r3, [r5]
 187              	.LVL7:
 188              	.LBB35:
 189              	.LBI32:
   3:Lib/SD3077.c  **** static uint8_t bin2bcd (uint8_t val) { return val + 6 * (val / 10); }
 190              		.loc 1 3 16 is_stmt 1 view .LVU32
 191              	.LBB34:
   3:Lib/SD3077.c  **** static uint8_t bin2bcd (uint8_t val) { return val + 6 * (val / 10); }
 192              		.loc 1 3 40 view .LVU33
   3:Lib/SD3077.c  **** static uint8_t bin2bcd (uint8_t val) { return val + 6 * (val / 10); }
 193              		.loc 1 3 51 is_stmt 0 view .LVU34
 194 0024 5242     		rsbs	r2, r2, #0
 195 0026 1909     		lsrs	r1, r3, #4
 196 0028 5143     		muls	r1, r2
 197 002a 5B18     		adds	r3, r3, r1
 198              	.LBE34:
ARM GAS  D:\Temp\ccqeondb.s 			page 5


 199              	.LBE35:
 200              		.loc 1 23 20 discriminator 1 view .LVU35
 201 002c 2370     		strb	r3, [r4]
  24:Lib/SD3077.c  **** 	dateTime->minutes = bcd2bin(data[1]);
 202              		.loc 1 24 2 is_stmt 1 view .LVU36
 203              		.loc 1 24 22 is_stmt 0 view .LVU37
 204 002e 6B78     		ldrb	r3, [r5, #1]
 205              	.LVL8:
 206              	.LBB36:
 207              	.LBI36:
   3:Lib/SD3077.c  **** static uint8_t bin2bcd (uint8_t val) { return val + 6 * (val / 10); }
 208              		.loc 1 3 16 is_stmt 1 view .LVU38
 209              	.LBB37:
   3:Lib/SD3077.c  **** static uint8_t bin2bcd (uint8_t val) { return val + 6 * (val / 10); }
 210              		.loc 1 3 40 view .LVU39
   3:Lib/SD3077.c  **** static uint8_t bin2bcd (uint8_t val) { return val + 6 * (val / 10); }
 211              		.loc 1 3 51 is_stmt 0 view .LVU40
 212 0030 1909     		lsrs	r1, r3, #4
 213 0032 5143     		muls	r1, r2
 214 0034 5B18     		adds	r3, r3, r1
 215              	.LBE37:
 216              	.LBE36:
  25:Lib/SD3077.c  **** 
  26:Lib/SD3077.c  **** 	if(data[2] >> 7){
 217              		.loc 1 26 4 view .LVU41
 218 0036 0221     		movs	r1, #2
  24:Lib/SD3077.c  **** 	dateTime->minutes = bcd2bin(data[1]);
 219              		.loc 1 24 20 discriminator 1 view .LVU42
 220 0038 6370     		strb	r3, [r4, #1]
 221              		.loc 1 26 2 is_stmt 1 view .LVU43
 222              		.loc 1 26 4 is_stmt 0 view .LVU44
 223 003a 6956     		ldrsb	r1, [r5, r1]
 224              		.loc 1 26 9 view .LVU45
 225 003c AB78     		ldrb	r3, [r5, #2]
 226              		.loc 1 26 4 view .LVU46
 227 003e 0029     		cmp	r1, #0
 228 0040 20DA     		bge	.L5
  27:Lib/SD3077.c  **** 		dateTime->ampm = HOUR24;
 229              		.loc 1 27 3 is_stmt 1 view .LVU47
  28:Lib/SD3077.c  **** 		dateTime->hours = bcd2bin(data[2] & 0x7F);
 230              		.loc 1 28 3 view .LVU48
 231              		.loc 1 28 21 is_stmt 0 view .LVU49
 232 0042 7F21     		movs	r1, #127
 233 0044 0B40     		ands	r3, r1
 234              	.LVL9:
 235              	.LBB38:
 236              	.LBI38:
   3:Lib/SD3077.c  **** static uint8_t bin2bcd (uint8_t val) { return val + 6 * (val / 10); }
 237              		.loc 1 3 16 is_stmt 1 view .LVU50
 238              	.LBB39:
   3:Lib/SD3077.c  **** static uint8_t bin2bcd (uint8_t val) { return val + 6 * (val / 10); }
 239              		.loc 1 3 40 view .LVU51
   3:Lib/SD3077.c  **** static uint8_t bin2bcd (uint8_t val) { return val + 6 * (val / 10); }
 240              		.loc 1 3 51 is_stmt 0 view .LVU52
 241 0046 1909     		lsrs	r1, r3, #4
 242 0048 4A43     		muls	r2, r1
 243              	.LBE39:
ARM GAS  D:\Temp\ccqeondb.s 			page 6


 244              	.LBE38:
 245 004a 0221     		movs	r1, #2
 246              	.LBB41:
 247              	.LBB40:
 248 004c 9B18     		adds	r3, r3, r2
 249              	.LVL10:
   3:Lib/SD3077.c  **** static uint8_t bin2bcd (uint8_t val) { return val + 6 * (val / 10); }
 250              		.loc 1 3 51 view .LVU53
 251 004e DBB2     		uxtb	r3, r3
 252              	.LVL11:
 253              	.L6:
   3:Lib/SD3077.c  **** static uint8_t bin2bcd (uint8_t val) { return val + 6 * (val / 10); }
 254              		.loc 1 3 51 view .LVU54
 255              	.LBE40:
 256              	.LBE41:
 257              		.loc 1 28 19 discriminator 1 view .LVU55
 258 0050 E370     		strb	r3, [r4, #3]
  29:Lib/SD3077.c  **** 	}
  30:Lib/SD3077.c  **** 	else{
  31:Lib/SD3077.c  **** 		dateTime->ampm =  (data[2] & 0x20) >> 5;
  32:Lib/SD3077.c  **** 		dateTime->hours = bcd2bin(data[2] & 0x1F);
  33:Lib/SD3077.c  **** 	}
  34:Lib/SD3077.c  **** 
  35:Lib/SD3077.c  **** 	dateTime->dayOfWeek = bcd2bin(data[3]);
 259              		.loc 1 35 2 is_stmt 1 view .LVU56
 260              	.LBB42:
 261              	.LBB43:
   3:Lib/SD3077.c  **** static uint8_t bin2bcd (uint8_t val) { return val + 6 * (val / 10); }
 262              		.loc 1 3 51 is_stmt 0 view .LVU57
 263 0052 0623     		movs	r3, #6
 264              	.LBE43:
 265              	.LBE42:
  27:Lib/SD3077.c  **** 		dateTime->hours = bcd2bin(data[2] & 0x7F);
 266              		.loc 1 27 18 view .LVU58
 267 0054 A170     		strb	r1, [r4, #2]
 268              		.loc 1 35 24 view .LVU59
 269 0056 EA78     		ldrb	r2, [r5, #3]
 270              	.LVL12:
 271              	.LBB45:
 272              	.LBI42:
   3:Lib/SD3077.c  **** static uint8_t bin2bcd (uint8_t val) { return val + 6 * (val / 10); }
 273              		.loc 1 3 16 is_stmt 1 view .LVU60
 274              	.LBB44:
   3:Lib/SD3077.c  **** static uint8_t bin2bcd (uint8_t val) { return val + 6 * (val / 10); }
 275              		.loc 1 3 40 view .LVU61
   3:Lib/SD3077.c  **** static uint8_t bin2bcd (uint8_t val) { return val + 6 * (val / 10); }
 276              		.loc 1 3 51 is_stmt 0 view .LVU62
 277 0058 5B42     		rsbs	r3, r3, #0
 278 005a 1109     		lsrs	r1, r2, #4
 279 005c 5943     		muls	r1, r3
 280 005e 5218     		adds	r2, r2, r1
 281              	.LBE44:
 282              	.LBE45:
 283              		.loc 1 35 22 discriminator 1 view .LVU63
 284 0060 2271     		strb	r2, [r4, #4]
  36:Lib/SD3077.c  **** 	dateTime->dayOfMonth = bcd2bin(data[4]);
 285              		.loc 1 36 2 is_stmt 1 view .LVU64
ARM GAS  D:\Temp\ccqeondb.s 			page 7


 286              		.loc 1 36 25 is_stmt 0 view .LVU65
 287 0062 2A79     		ldrb	r2, [r5, #4]
 288              	.LVL13:
 289              	.LBB46:
 290              	.LBI46:
   3:Lib/SD3077.c  **** static uint8_t bin2bcd (uint8_t val) { return val + 6 * (val / 10); }
 291              		.loc 1 3 16 is_stmt 1 view .LVU66
 292              	.LBB47:
   3:Lib/SD3077.c  **** static uint8_t bin2bcd (uint8_t val) { return val + 6 * (val / 10); }
 293              		.loc 1 3 40 view .LVU67
   3:Lib/SD3077.c  **** static uint8_t bin2bcd (uint8_t val) { return val + 6 * (val / 10); }
 294              		.loc 1 3 51 is_stmt 0 view .LVU68
 295 0064 1109     		lsrs	r1, r2, #4
 296 0066 5943     		muls	r1, r3
 297 0068 5218     		adds	r2, r2, r1
 298              	.LBE47:
 299              	.LBE46:
 300              		.loc 1 36 23 discriminator 1 view .LVU69
 301 006a 6271     		strb	r2, [r4, #5]
  37:Lib/SD3077.c  **** 	dateTime->month = bcd2bin(data[5]);
 302              		.loc 1 37 2 is_stmt 1 view .LVU70
 303              		.loc 1 37 20 is_stmt 0 view .LVU71
 304 006c 6A79     		ldrb	r2, [r5, #5]
 305              	.LVL14:
 306              	.LBB48:
 307              	.LBI48:
   3:Lib/SD3077.c  **** static uint8_t bin2bcd (uint8_t val) { return val + 6 * (val / 10); }
 308              		.loc 1 3 16 is_stmt 1 view .LVU72
 309              	.LBB49:
   3:Lib/SD3077.c  **** static uint8_t bin2bcd (uint8_t val) { return val + 6 * (val / 10); }
 310              		.loc 1 3 40 view .LVU73
   3:Lib/SD3077.c  **** static uint8_t bin2bcd (uint8_t val) { return val + 6 * (val / 10); }
 311              		.loc 1 3 51 is_stmt 0 view .LVU74
 312 006e 1109     		lsrs	r1, r2, #4
 313 0070 5943     		muls	r1, r3
 314 0072 5218     		adds	r2, r2, r1
 315              	.LBE49:
 316              	.LBE48:
 317              		.loc 1 37 18 discriminator 1 view .LVU75
 318 0074 A271     		strb	r2, [r4, #6]
  38:Lib/SD3077.c  **** 	dateTime->year = bcd2bin(data[6]);
 319              		.loc 1 38 2 is_stmt 1 view .LVU76
 320              		.loc 1 38 19 is_stmt 0 view .LVU77
 321 0076 AA79     		ldrb	r2, [r5, #6]
 322              	.LVL15:
 323              	.LBB50:
 324              	.LBI50:
   3:Lib/SD3077.c  **** static uint8_t bin2bcd (uint8_t val) { return val + 6 * (val / 10); }
 325              		.loc 1 3 16 is_stmt 1 view .LVU78
 326              	.LBB51:
   3:Lib/SD3077.c  **** static uint8_t bin2bcd (uint8_t val) { return val + 6 * (val / 10); }
 327              		.loc 1 3 40 view .LVU79
   3:Lib/SD3077.c  **** static uint8_t bin2bcd (uint8_t val) { return val + 6 * (val / 10); }
 328              		.loc 1 3 51 is_stmt 0 view .LVU80
 329 0078 1109     		lsrs	r1, r2, #4
 330 007a 4B43     		muls	r3, r1
 331 007c D218     		adds	r2, r2, r3
ARM GAS  D:\Temp\ccqeondb.s 			page 8


 332              	.LBE51:
 333              	.LBE50:
 334              		.loc 1 38 17 discriminator 1 view .LVU81
 335 007e E271     		strb	r2, [r4, #7]
  39:Lib/SD3077.c  **** }
 336              		.loc 1 39 1 view .LVU82
 337 0080 07B0     		add	sp, sp, #28
 338              		@ sp needed
 339              	.LVL16:
 340              		.loc 1 39 1 view .LVU83
 341 0082 30BD     		pop	{r4, r5, pc}
 342              	.LVL17:
 343              	.L5:
  31:Lib/SD3077.c  **** 		dateTime->hours = bcd2bin(data[2] & 0x1F);
 344              		.loc 1 31 3 is_stmt 1 view .LVU84
  32:Lib/SD3077.c  **** 	}
 345              		.loc 1 32 21 is_stmt 0 view .LVU85
 346 0084 1F22     		movs	r2, #31
 347              	.LBB52:
 348              	.LBB53:
   3:Lib/SD3077.c  **** static uint8_t bin2bcd (uint8_t val) { return val + 6 * (val / 10); }
 349              		.loc 1 3 51 view .LVU86
 350 0086 0520     		movs	r0, #5
 351              	.LBE53:
 352              	.LBE52:
  31:Lib/SD3077.c  **** 		dateTime->hours = bcd2bin(data[2] & 0x1F);
 353              		.loc 1 31 38 view .LVU87
 354 0088 9906     		lsls	r1, r3, #26
  32:Lib/SD3077.c  **** 	}
 355              		.loc 1 32 21 view .LVU88
 356 008a 1340     		ands	r3, r2
 357              	.LBB56:
 358              	.LBB54:
   3:Lib/SD3077.c  **** static uint8_t bin2bcd (uint8_t val) { return val + 6 * (val / 10); }
 359              		.loc 1 3 51 view .LVU89
 360 008c 1A09     		lsrs	r2, r3, #4
 361 008e 5242     		rsbs	r2, r2, #0
 362 0090 8243     		bics	r2, r0
 363 0092 9B18     		adds	r3, r3, r2
 364              	.LBE54:
 365              	.LBE56:
  31:Lib/SD3077.c  **** 		dateTime->hours = bcd2bin(data[2] & 0x1F);
 366              		.loc 1 31 38 view .LVU90
 367 0094 C90F     		lsrs	r1, r1, #31
  32:Lib/SD3077.c  **** 	}
 368              		.loc 1 32 3 is_stmt 1 view .LVU91
 369              	.LBB57:
 370              	.LBI52:
   3:Lib/SD3077.c  **** static uint8_t bin2bcd (uint8_t val) { return val + 6 * (val / 10); }
 371              		.loc 1 3 16 view .LVU92
 372              	.LBB55:
   3:Lib/SD3077.c  **** static uint8_t bin2bcd (uint8_t val) { return val + 6 * (val / 10); }
 373              		.loc 1 3 40 view .LVU93
   3:Lib/SD3077.c  **** static uint8_t bin2bcd (uint8_t val) { return val + 6 * (val / 10); }
 374              		.loc 1 3 51 is_stmt 0 view .LVU94
 375 0096 DBB2     		uxtb	r3, r3
 376 0098 DAE7     		b	.L6
ARM GAS  D:\Temp\ccqeondb.s 			page 9


 377              	.L8:
 378 009a C046     		.align	2
 379              	.L7:
 380 009c 00000000 		.word	hi2c1
 381              	.LBE55:
 382              	.LBE57:
 383              		.cfi_endproc
 384              	.LFE40:
 386              		.global	__aeabi_uidiv
 387              		.section	.text.SetTime,"ax",%progbits
 388              		.align	1
 389              		.global	SetTime
 390              		.syntax unified
 391              		.code	16
 392              		.thumb_func
 394              	SetTime:
 395              	.LVL18:
 396              	.LFB41:
  40:Lib/SD3077.c  **** 
  41:Lib/SD3077.c  **** void SetTime(DateTime *dateTime){
 397              		.loc 1 41 33 is_stmt 1 view -0
 398              		.cfi_startproc
 399              		@ args = 0, pretend = 0, frame = 16
 400              		@ frame_needed = 0, uses_anonymous_args = 0
  42:Lib/SD3077.c  **** 	// 解除写保护
  43:Lib/SD3077.c  **** 	UnlockWriteProtect();
 401              		.loc 1 43 2 view .LVU96
  41:Lib/SD3077.c  **** 	// 解除写保护
 402              		.loc 1 41 33 is_stmt 0 view .LVU97
 403 0000 F0B5     		push	{r4, r5, r6, r7, lr}
 404              	.LCFI4:
 405              		.cfi_def_cfa_offset 20
 406              		.cfi_offset 4, -20
 407              		.cfi_offset 5, -16
 408              		.cfi_offset 6, -12
 409              		.cfi_offset 7, -8
 410              		.cfi_offset 14, -4
 411 0002 0500     		movs	r5, r0
 412 0004 89B0     		sub	sp, sp, #36
 413              	.LCFI5:
 414              		.cfi_def_cfa_offset 56
 415              		.loc 1 43 2 view .LVU98
 416 0006 FFF7FEFF 		bl	UnlockWriteProtect
 417              	.LVL19:
  44:Lib/SD3077.c  **** 
  45:Lib/SD3077.c  **** 	uint8_t data[7];
 418              		.loc 1 45 2 is_stmt 1 view .LVU99
  46:Lib/SD3077.c  **** 	data[0] = bin2bcd(dateTime->seconds);
 419              		.loc 1 46 2 view .LVU100
 420              		.loc 1 46 12 is_stmt 0 view .LVU101
 421 000a 2C78     		ldrb	r4, [r5]
 422              	.LVL20:
 423              	.LBB58:
 424              	.LBI58:
   4:Lib/SD3077.c  **** 
 425              		.loc 1 4 16 is_stmt 1 view .LVU102
 426              	.LBB59:
ARM GAS  D:\Temp\ccqeondb.s 			page 10


   4:Lib/SD3077.c  **** 
 427              		.loc 1 4 40 view .LVU103
   4:Lib/SD3077.c  **** 
 428              		.loc 1 4 51 is_stmt 0 view .LVU104
 429 000c 0A21     		movs	r1, #10
 430 000e 2000     		movs	r0, r4
 431 0010 FFF7FEFF 		bl	__aeabi_uidiv
 432              	.LVL21:
 433 0014 0626     		movs	r6, #6
 434 0016 7043     		muls	r0, r6
 435              	.LBE59:
 436              	.LBE58:
 437              		.loc 1 46 10 discriminator 1 view .LVU105
 438 0018 06AF     		add	r7, sp, #24
 439              	.LBB61:
 440              	.LBB60:
   4:Lib/SD3077.c  **** 
 441              		.loc 1 4 51 view .LVU106
 442 001a 2418     		adds	r4, r4, r0
 443              	.LBE60:
 444              	.LBE61:
 445              		.loc 1 46 10 discriminator 1 view .LVU107
 446 001c 3C70     		strb	r4, [r7]
  47:Lib/SD3077.c  **** 	data[1] = bin2bcd(dateTime->minutes);
 447              		.loc 1 47 2 is_stmt 1 view .LVU108
 448              		.loc 1 47 12 is_stmt 0 view .LVU109
 449 001e 6C78     		ldrb	r4, [r5, #1]
 450              	.LVL22:
 451              	.LBB62:
 452              	.LBI62:
   4:Lib/SD3077.c  **** 
 453              		.loc 1 4 16 is_stmt 1 view .LVU110
 454              	.LBB63:
   4:Lib/SD3077.c  **** 
 455              		.loc 1 4 40 view .LVU111
   4:Lib/SD3077.c  **** 
 456              		.loc 1 4 51 is_stmt 0 view .LVU112
 457 0020 0A21     		movs	r1, #10
 458 0022 2000     		movs	r0, r4
 459 0024 FFF7FEFF 		bl	__aeabi_uidiv
 460              	.LVL23:
 461 0028 7043     		muls	r0, r6
 462 002a 2418     		adds	r4, r4, r0
 463              	.LBE63:
 464              	.LBE62:
 465              		.loc 1 47 10 discriminator 1 view .LVU113
 466 002c 7C70     		strb	r4, [r7, #1]
  48:Lib/SD3077.c  **** 	data[2] = bin2bcd(dateTime->hours);
 467              		.loc 1 48 2 is_stmt 1 view .LVU114
 468              		.loc 1 48 12 is_stmt 0 view .LVU115
 469 002e EC78     		ldrb	r4, [r5, #3]
 470              	.LVL24:
 471              	.LBB64:
 472              	.LBI64:
   4:Lib/SD3077.c  **** 
 473              		.loc 1 4 16 is_stmt 1 view .LVU116
 474              	.LBB65:
ARM GAS  D:\Temp\ccqeondb.s 			page 11


   4:Lib/SD3077.c  **** 
 475              		.loc 1 4 40 view .LVU117
   4:Lib/SD3077.c  **** 
 476              		.loc 1 4 51 is_stmt 0 view .LVU118
 477 0030 0A21     		movs	r1, #10
 478 0032 2000     		movs	r0, r4
 479 0034 FFF7FEFF 		bl	__aeabi_uidiv
 480              	.LVL25:
 481 0038 7043     		muls	r0, r6
 482              	.LBE65:
 483              	.LBE64:
  49:Lib/SD3077.c  **** 	data[3] = bin2bcd(dateTime->dayOfWeek);
 484              		.loc 1 49 12 view .LVU119
 485 003a 2B79     		ldrb	r3, [r5, #4]
 486              	.LBB68:
 487              	.LBB69:
   4:Lib/SD3077.c  **** 
 488              		.loc 1 4 51 view .LVU120
 489 003c 0A21     		movs	r1, #10
 490              	.LBE69:
 491              	.LBE68:
 492              	.LBB74:
 493              	.LBB66:
 494 003e 2418     		adds	r4, r4, r0
 495              	.LVL26:
   4:Lib/SD3077.c  **** 
 496              		.loc 1 4 51 view .LVU121
 497              	.LBE66:
 498              	.LBE74:
 499              	.LBB75:
 500              	.LBB70:
 501 0040 1800     		movs	r0, r3
 502              	.LBE70:
 503              	.LBE75:
 504              		.loc 1 49 12 view .LVU122
 505 0042 0593     		str	r3, [sp, #20]
 506              	.LBB76:
 507              	.LBB71:
   4:Lib/SD3077.c  **** 
 508              		.loc 1 4 51 view .LVU123
 509 0044 FFF7FEFF 		bl	__aeabi_uidiv
 510              	.LVL27:
 511 0048 7043     		muls	r0, r6
 512 004a 059B     		ldr	r3, [sp, #20]
 513              	.LBE71:
 514              	.LBE76:
 515              	.LBB77:
 516              	.LBB78:
 517 004c 0A21     		movs	r1, #10
 518              	.LBE78:
 519              	.LBE77:
 520              	.LBB82:
 521              	.LBB72:
 522 004e 1818     		adds	r0, r3, r0
 523              	.LBE72:
 524              	.LBE82:
 525              		.loc 1 49 10 discriminator 1 view .LVU124
ARM GAS  D:\Temp\ccqeondb.s 			page 12


 526 0050 F870     		strb	r0, [r7, #3]
  50:Lib/SD3077.c  **** 	data[4] = bin2bcd(dateTime->dayOfMonth);
 527              		.loc 1 50 12 view .LVU125
 528 0052 6B79     		ldrb	r3, [r5, #5]
 529              	.LBB83:
 530              	.LBB67:
   4:Lib/SD3077.c  **** 
 531              		.loc 1 4 51 view .LVU126
 532 0054 E4B2     		uxtb	r4, r4
 533              	.LVL28:
   4:Lib/SD3077.c  **** 
 534              		.loc 1 4 51 view .LVU127
 535              	.LBE67:
 536              	.LBE83:
  49:Lib/SD3077.c  **** 	data[3] = bin2bcd(dateTime->dayOfWeek);
 537              		.loc 1 49 2 is_stmt 1 view .LVU128
 538              	.LBB84:
 539              	.LBI68:
   4:Lib/SD3077.c  **** 
 540              		.loc 1 4 16 view .LVU129
 541              	.LBB73:
   4:Lib/SD3077.c  **** 
 542              		.loc 1 4 40 view .LVU130
   4:Lib/SD3077.c  **** 
 543              		.loc 1 4 40 is_stmt 0 view .LVU131
 544              	.LBE73:
 545              	.LBE84:
 546              		.loc 1 50 2 is_stmt 1 view .LVU132
 547              	.LBB85:
 548              	.LBB79:
   4:Lib/SD3077.c  **** 
 549              		.loc 1 4 51 is_stmt 0 view .LVU133
 550 0056 1800     		movs	r0, r3
 551              	.LBE79:
 552              	.LBE85:
 553              		.loc 1 50 12 view .LVU134
 554 0058 0593     		str	r3, [sp, #20]
 555              	.LVL29:
 556              	.LBB86:
 557              	.LBI77:
   4:Lib/SD3077.c  **** 
 558              		.loc 1 4 16 is_stmt 1 view .LVU135
 559              	.LBB80:
   4:Lib/SD3077.c  **** 
 560              		.loc 1 4 40 view .LVU136
   4:Lib/SD3077.c  **** 
 561              		.loc 1 4 51 is_stmt 0 view .LVU137
 562 005a FFF7FEFF 		bl	__aeabi_uidiv
 563              	.LVL30:
 564 005e 7043     		muls	r0, r6
 565 0060 059B     		ldr	r3, [sp, #20]
 566              	.LBE80:
 567              	.LBE86:
 568              	.LBB87:
 569              	.LBB88:
 570 0062 0A21     		movs	r1, #10
 571              	.LBE88:
ARM GAS  D:\Temp\ccqeondb.s 			page 13


 572              	.LBE87:
 573              	.LBB92:
 574              	.LBB81:
 575 0064 1818     		adds	r0, r3, r0
 576              	.LBE81:
 577              	.LBE92:
 578              		.loc 1 50 10 discriminator 1 view .LVU138
 579 0066 3871     		strb	r0, [r7, #4]
  51:Lib/SD3077.c  **** 	data[5] = bin2bcd(dateTime->month);
 580              		.loc 1 51 2 is_stmt 1 view .LVU139
 581              		.loc 1 51 12 is_stmt 0 view .LVU140
 582 0068 AB79     		ldrb	r3, [r5, #6]
 583              	.LBB93:
 584              	.LBB89:
   4:Lib/SD3077.c  **** 
 585              		.loc 1 4 51 view .LVU141
 586 006a 1800     		movs	r0, r3
 587              	.LBE89:
 588              	.LBE93:
 589              		.loc 1 51 12 view .LVU142
 590 006c 0593     		str	r3, [sp, #20]
 591              	.LVL31:
 592              	.LBB94:
 593              	.LBI87:
   4:Lib/SD3077.c  **** 
 594              		.loc 1 4 16 is_stmt 1 view .LVU143
 595              	.LBB90:
   4:Lib/SD3077.c  **** 
 596              		.loc 1 4 40 view .LVU144
   4:Lib/SD3077.c  **** 
 597              		.loc 1 4 51 is_stmt 0 view .LVU145
 598 006e FFF7FEFF 		bl	__aeabi_uidiv
 599              	.LVL32:
 600 0072 7043     		muls	r0, r6
 601 0074 059B     		ldr	r3, [sp, #20]
 602              	.LBE90:
 603              	.LBE94:
 604              	.LBB95:
 605              	.LBB96:
 606 0076 0A21     		movs	r1, #10
 607              	.LBE96:
 608              	.LBE95:
 609              	.LBB99:
 610              	.LBB91:
 611 0078 1818     		adds	r0, r3, r0
 612              	.LBE91:
 613              	.LBE99:
 614              		.loc 1 51 10 discriminator 1 view .LVU146
 615 007a 7871     		strb	r0, [r7, #5]
  52:Lib/SD3077.c  **** 	data[6] = bin2bcd(dateTime->year);
 616              		.loc 1 52 2 is_stmt 1 view .LVU147
 617              		.loc 1 52 12 is_stmt 0 view .LVU148
 618 007c EB79     		ldrb	r3, [r5, #7]
 619              	.LBB100:
 620              	.LBB97:
   4:Lib/SD3077.c  **** 
 621              		.loc 1 4 51 view .LVU149
ARM GAS  D:\Temp\ccqeondb.s 			page 14


 622 007e 1800     		movs	r0, r3
 623              	.LBE97:
 624              	.LBE100:
 625              		.loc 1 52 12 view .LVU150
 626 0080 0593     		str	r3, [sp, #20]
 627              	.LVL33:
 628              	.LBB101:
 629              	.LBI95:
   4:Lib/SD3077.c  **** 
 630              		.loc 1 4 16 is_stmt 1 view .LVU151
 631              	.LBB98:
   4:Lib/SD3077.c  **** 
 632              		.loc 1 4 40 view .LVU152
   4:Lib/SD3077.c  **** 
 633              		.loc 1 4 51 is_stmt 0 view .LVU153
 634 0082 FFF7FEFF 		bl	__aeabi_uidiv
 635              	.LVL34:
 636 0086 4643     		muls	r6, r0
 637 0088 059B     		ldr	r3, [sp, #20]
 638 008a 9E19     		adds	r6, r3, r6
 639              	.LBE98:
 640              	.LBE101:
 641              		.loc 1 52 10 discriminator 1 view .LVU154
 642 008c BE71     		strb	r6, [r7, #6]
  53:Lib/SD3077.c  **** 
  54:Lib/SD3077.c  **** 	if((dateTime -> ampm) == HOUR24){
 643              		.loc 1 54 2 is_stmt 1 view .LVU155
 644              		.loc 1 54 15 is_stmt 0 view .LVU156
 645 008e AB78     		ldrb	r3, [r5, #2]
 646              		.loc 1 54 4 view .LVU157
 647 0090 022B     		cmp	r3, #2
 648 0092 10D1     		bne	.L10
  55:Lib/SD3077.c  **** 		data[2] |= 0x80;
 649              		.loc 1 55 3 is_stmt 1 view .LVU158
 650              		.loc 1 55 11 is_stmt 0 view .LVU159
 651 0094 7E33     		adds	r3, r3, #126
 652 0096 1C43     		orrs	r4, r3
 653              	.L11:
  56:Lib/SD3077.c  **** 	}
  57:Lib/SD3077.c  **** 	else{
  58:Lib/SD3077.c  **** 		data[2] |= (dateTime -> ampm) << 5;
  59:Lib/SD3077.c  **** 	}
  60:Lib/SD3077.c  **** 
  61:Lib/SD3077.c  **** 	HAL_I2C_Mem_Write(&SD3077_IIC_HANDLE, SD3077_IIC_ADDR_WRITE, 0x00, 1, data, 7, HAL_MAX_DELAY);
 654              		.loc 1 61 2 view .LVU160
 655 0098 0123     		movs	r3, #1
 656 009a 5B42     		rsbs	r3, r3, #0
 657 009c BC70     		strb	r4, [r7, #2]
 658              		.loc 1 61 2 is_stmt 1 view .LVU161
 659 009e 0293     		str	r3, [sp, #8]
 660 00a0 0833     		adds	r3, r3, #8
 661 00a2 0193     		str	r3, [sp, #4]
 662 00a4 0022     		movs	r2, #0
 663 00a6 6421     		movs	r1, #100
 664 00a8 0097     		str	r7, [sp]
 665 00aa 063B     		subs	r3, r3, #6
 666 00ac 0448     		ldr	r0, .L12
ARM GAS  D:\Temp\ccqeondb.s 			page 15


 667 00ae FFF7FEFF 		bl	HAL_I2C_Mem_Write
 668              	.LVL35:
  62:Lib/SD3077.c  **** }
 669              		.loc 1 62 1 is_stmt 0 view .LVU162
 670 00b2 09B0     		add	sp, sp, #36
 671              		@ sp needed
 672              	.LVL36:
 673              		.loc 1 62 1 view .LVU163
 674 00b4 F0BD     		pop	{r4, r5, r6, r7, pc}
 675              	.LVL37:
 676              	.L10:
  58:Lib/SD3077.c  **** 	}
 677              		.loc 1 58 3 is_stmt 1 view .LVU164
  58:Lib/SD3077.c  **** 	}
 678              		.loc 1 58 11 is_stmt 0 view .LVU165
 679 00b6 5B01     		lsls	r3, r3, #5
 680 00b8 1C43     		orrs	r4, r3
 681 00ba E4B2     		uxtb	r4, r4
 682 00bc ECE7     		b	.L11
 683              	.L13:
 684 00be C046     		.align	2
 685              	.L12:
 686 00c0 00000000 		.word	hi2c1
 687              		.cfi_endproc
 688              	.LFE41:
 690              		.section	.text.EnableSencodInterruptOuput,"ax",%progbits
 691              		.align	1
 692              		.global	EnableSencodInterruptOuput
 693              		.syntax unified
 694              		.code	16
 695              		.thumb_func
 697              	EnableSencodInterruptOuput:
 698              	.LFB42:
  63:Lib/SD3077.c  **** 
  64:Lib/SD3077.c  **** void EnableSencodInterruptOuput(){
 699              		.loc 1 64 34 is_stmt 1 view -0
 700              		.cfi_startproc
 701              		@ args = 0, pretend = 0, frame = 8
 702              		@ frame_needed = 0, uses_anonymous_args = 0
  65:Lib/SD3077.c  **** 	// 解除写保护
  66:Lib/SD3077.c  **** 	UnlockWriteProtect();
 703              		.loc 1 66 2 view .LVU167
  64:Lib/SD3077.c  **** 	// 解除写保护
 704              		.loc 1 64 34 is_stmt 0 view .LVU168
 705 0000 F0B5     		push	{r4, r5, r6, r7, lr}
 706              	.LCFI6:
 707              		.cfi_def_cfa_offset 20
 708              		.cfi_offset 4, -20
 709              		.cfi_offset 5, -16
 710              		.cfi_offset 6, -12
 711              		.cfi_offset 7, -8
 712              		.cfi_offset 14, -4
  67:Lib/SD3077.c  **** 
  68:Lib/SD3077.c  **** 	// 读出控制寄存器2和3
  69:Lib/SD3077.c  **** 	uint8_t data[2];
  70:Lib/SD3077.c  **** 	HAL_I2C_Mem_Read(&SD3077_IIC_HANDLE, SD3077_IIC_ADDR_READ, 0x10, 1, data, 2, HAL_MAX_DELAY);
 713              		.loc 1 70 2 view .LVU169
ARM GAS  D:\Temp\ccqeondb.s 			page 16


 714 0002 0127     		movs	r7, #1
 715 0004 0226     		movs	r6, #2
  64:Lib/SD3077.c  **** 	// 解除写保护
 716              		.loc 1 64 34 view .LVU170
 717 0006 87B0     		sub	sp, sp, #28
 718              	.LCFI7:
 719              		.cfi_def_cfa_offset 48
  66:Lib/SD3077.c  **** 
 720              		.loc 1 66 2 view .LVU171
 721 0008 FFF7FEFF 		bl	UnlockWriteProtect
 722              	.LVL38:
  69:Lib/SD3077.c  **** 	HAL_I2C_Mem_Read(&SD3077_IIC_HANDLE, SD3077_IIC_ADDR_READ, 0x10, 1, data, 2, HAL_MAX_DELAY);
 723              		.loc 1 69 2 is_stmt 1 view .LVU172
 724              		.loc 1 70 2 view .LVU173
 725 000c 0F4D     		ldr	r5, .L15
 726 000e 05AC     		add	r4, sp, #20
 727 0010 7F42     		rsbs	r7, r7, #0
 728 0012 0123     		movs	r3, #1
 729 0014 1022     		movs	r2, #16
 730 0016 6521     		movs	r1, #101
 731 0018 2800     		movs	r0, r5
 732 001a 0297     		str	r7, [sp, #8]
 733 001c 0196     		str	r6, [sp, #4]
 734 001e 0094     		str	r4, [sp]
 735 0020 FFF7FEFF 		bl	HAL_I2C_Mem_Read
 736              	.LVL39:
  71:Lib/SD3077.c  **** 
  72:Lib/SD3077.c  **** 	// 允许频率中断
  73:Lib/SD3077.c  **** 	data[0] |= 0x01;
 737              		.loc 1 73 2 view .LVU174
  74:Lib/SD3077.c  **** 	// 选择频率中断输出
  75:Lib/SD3077.c  **** 	data[0] |= 0x20;
 738              		.loc 1 75 2 view .LVU175
  76:Lib/SD3077.c  **** 	data[0] &= 0xEF;
 739              		.loc 1 76 2 view .LVU176
 740              		.loc 1 76 10 is_stmt 0 view .LVU177
 741 0024 1022     		movs	r2, #16
 742 0026 2123     		movs	r3, #33
 743 0028 2178     		ldrb	r1, [r4]
  77:Lib/SD3077.c  **** 
  78:Lib/SD3077.c  **** 	// 设置频率为1Hz
  79:Lib/SD3077.c  **** //	data[1] &= 0xF0;
  80:Lib/SD3077.c  **** //	data[1] |= 0x0A;
  81:Lib/SD3077.c  **** 
  82:Lib/SD3077.c  **** 	// 设置频率为1秒
  83:Lib/SD3077.c  **** 	data[1] |= 0x0F;
  84:Lib/SD3077.c  **** 
  85:Lib/SD3077.c  **** 	// 控制寄存器回写
  86:Lib/SD3077.c  **** 	HAL_I2C_Mem_Write(&SD3077_IIC_HANDLE, SD3077_IIC_ADDR_WRITE, 0x10, 1, data, 2, HAL_MAX_DELAY);
 744              		.loc 1 86 2 view .LVU178
 745 002a 2800     		movs	r0, r5
  76:Lib/SD3077.c  **** 	data[0] &= 0xEF;
 746              		.loc 1 76 10 view .LVU179
 747 002c 9143     		bics	r1, r2
 748 002e 0B43     		orrs	r3, r1
 749 0030 2370     		strb	r3, [r4]
  83:Lib/SD3077.c  **** 
ARM GAS  D:\Temp\ccqeondb.s 			page 17


 750              		.loc 1 83 2 is_stmt 1 view .LVU180
  83:Lib/SD3077.c  **** 
 751              		.loc 1 83 10 is_stmt 0 view .LVU181
 752 0032 0F23     		movs	r3, #15
 753 0034 6178     		ldrb	r1, [r4, #1]
 754 0036 0B43     		orrs	r3, r1
 755 0038 6370     		strb	r3, [r4, #1]
 756              		.loc 1 86 2 is_stmt 1 view .LVU182
 757 003a 6421     		movs	r1, #100
 758 003c 0123     		movs	r3, #1
 759 003e 0297     		str	r7, [sp, #8]
 760 0040 0196     		str	r6, [sp, #4]
 761 0042 0094     		str	r4, [sp]
 762 0044 FFF7FEFF 		bl	HAL_I2C_Mem_Write
 763              	.LVL40:
  87:Lib/SD3077.c  **** }
 764              		.loc 1 87 1 is_stmt 0 view .LVU183
 765 0048 07B0     		add	sp, sp, #28
 766              		@ sp needed
 767 004a F0BD     		pop	{r4, r5, r6, r7, pc}
 768              	.L16:
 769              		.align	2
 770              	.L15:
 771 004c 00000000 		.word	hi2c1
 772              		.cfi_endproc
 773              	.LFE42:
 775              		.section	.text.SetInterruptOuput,"ax",%progbits
 776              		.align	1
 777              		.global	SetInterruptOuput
 778              		.syntax unified
 779              		.code	16
 780              		.thumb_func
 782              	SetInterruptOuput:
 783              	.LVL41:
 784              	.LFB43:
  88:Lib/SD3077.c  **** 
  89:Lib/SD3077.c  **** void SetInterruptOuput(SD3077IntFreq freq){
 785              		.loc 1 89 43 is_stmt 1 view -0
 786              		.cfi_startproc
 787              		@ args = 0, pretend = 0, frame = 16
 788              		@ frame_needed = 0, uses_anonymous_args = 0
  90:Lib/SD3077.c  **** 	// 解除写保护
  91:Lib/SD3077.c  **** 	UnlockWriteProtect();
 789              		.loc 1 91 2 view .LVU185
  89:Lib/SD3077.c  **** 	// 解除写保护
 790              		.loc 1 89 43 is_stmt 0 view .LVU186
 791 0000 F0B5     		push	{r4, r5, r6, r7, lr}
 792              	.LCFI8:
 793              		.cfi_def_cfa_offset 20
 794              		.cfi_offset 4, -20
 795              		.cfi_offset 5, -16
 796              		.cfi_offset 6, -12
 797              		.cfi_offset 7, -8
 798              		.cfi_offset 14, -4
  92:Lib/SD3077.c  **** 
  93:Lib/SD3077.c  **** 	// 读出控制寄存器2和3
  94:Lib/SD3077.c  **** 	uint8_t data[2];
ARM GAS  D:\Temp\ccqeondb.s 			page 18


  95:Lib/SD3077.c  **** 	HAL_I2C_Mem_Read(&SD3077_IIC_HANDLE, SD3077_IIC_ADDR_READ, 0x10, 1, data, 2, HAL_MAX_DELAY);
 799              		.loc 1 95 2 view .LVU187
 800 0002 0127     		movs	r7, #1
 801 0004 0226     		movs	r6, #2
  89:Lib/SD3077.c  **** 	// 解除写保护
 802              		.loc 1 89 43 view .LVU188
 803 0006 89B0     		sub	sp, sp, #36
 804              	.LCFI9:
 805              		.cfi_def_cfa_offset 56
  89:Lib/SD3077.c  **** 	// 解除写保护
 806              		.loc 1 89 43 view .LVU189
 807 0008 0590     		str	r0, [sp, #20]
  91:Lib/SD3077.c  **** 
 808              		.loc 1 91 2 view .LVU190
 809 000a FFF7FEFF 		bl	UnlockWriteProtect
 810              	.LVL42:
  94:Lib/SD3077.c  **** 	HAL_I2C_Mem_Read(&SD3077_IIC_HANDLE, SD3077_IIC_ADDR_READ, 0x10, 1, data, 2, HAL_MAX_DELAY);
 811              		.loc 1 94 2 is_stmt 1 view .LVU191
 812              		.loc 1 95 2 view .LVU192
 813 000e 114D     		ldr	r5, .L18
 814 0010 07AC     		add	r4, sp, #28
 815 0012 7F42     		rsbs	r7, r7, #0
 816 0014 0123     		movs	r3, #1
 817 0016 1022     		movs	r2, #16
 818 0018 6521     		movs	r1, #101
 819 001a 2800     		movs	r0, r5
 820 001c 0297     		str	r7, [sp, #8]
 821 001e 0196     		str	r6, [sp, #4]
 822 0020 0094     		str	r4, [sp]
 823 0022 FFF7FEFF 		bl	HAL_I2C_Mem_Read
 824              	.LVL43:
  96:Lib/SD3077.c  **** 
  97:Lib/SD3077.c  **** 	// 允许频率中断
  98:Lib/SD3077.c  **** 	data[0] |= 0x01;
 825              		.loc 1 98 2 view .LVU193
  99:Lib/SD3077.c  **** 	// 选择频率中断输出
 100:Lib/SD3077.c  **** 	data[0] |= 0x20;
 826              		.loc 1 100 2 view .LVU194
 101:Lib/SD3077.c  **** 	data[0] &= 0xEF;
 827              		.loc 1 101 2 view .LVU195
 828              		.loc 1 101 10 is_stmt 0 view .LVU196
 829 0026 1022     		movs	r2, #16
 830 0028 2123     		movs	r3, #33
 831 002a 2178     		ldrb	r1, [r4]
 102:Lib/SD3077.c  **** 
 103:Lib/SD3077.c  **** 	// 设置频率为1Hz
 104:Lib/SD3077.c  **** 	data[1] &= 0xF0;
 105:Lib/SD3077.c  **** 	data[1] |= freq;
 106:Lib/SD3077.c  **** 
 107:Lib/SD3077.c  **** 	// 设置频率为1秒
 108:Lib/SD3077.c  **** //	data[1] |= 0x0F;
 109:Lib/SD3077.c  **** 
 110:Lib/SD3077.c  **** 	// 控制寄存器回写
 111:Lib/SD3077.c  **** 	HAL_I2C_Mem_Write(&SD3077_IIC_HANDLE, SD3077_IIC_ADDR_WRITE, 0x10, 1, data, 2, HAL_MAX_DELAY);
 832              		.loc 1 111 2 view .LVU197
 833 002c 2800     		movs	r0, r5
 101:Lib/SD3077.c  **** 	data[0] &= 0xEF;
ARM GAS  D:\Temp\ccqeondb.s 			page 19


 834              		.loc 1 101 10 view .LVU198
 835 002e 9143     		bics	r1, r2
 836 0030 0B43     		orrs	r3, r1
 104:Lib/SD3077.c  **** 	data[1] |= freq;
 837              		.loc 1 104 10 view .LVU199
 838 0032 0F21     		movs	r1, #15
 101:Lib/SD3077.c  **** 	data[0] &= 0xEF;
 839              		.loc 1 101 10 view .LVU200
 840 0034 2370     		strb	r3, [r4]
 104:Lib/SD3077.c  **** 	data[1] |= freq;
 841              		.loc 1 104 2 is_stmt 1 view .LVU201
 105:Lib/SD3077.c  **** 
 842              		.loc 1 105 2 view .LVU202
 104:Lib/SD3077.c  **** 	data[1] |= freq;
 843              		.loc 1 104 10 is_stmt 0 view .LVU203
 844 0036 6378     		ldrb	r3, [r4, #1]
 845 0038 8B43     		bics	r3, r1
 105:Lib/SD3077.c  **** 
 846              		.loc 1 105 10 view .LVU204
 847 003a 0599     		ldr	r1, [sp, #20]
 848 003c 1943     		orrs	r1, r3
 849 003e 6170     		strb	r1, [r4, #1]
 850              		.loc 1 111 2 is_stmt 1 view .LVU205
 851 0040 0123     		movs	r3, #1
 852 0042 6421     		movs	r1, #100
 853 0044 0297     		str	r7, [sp, #8]
 854 0046 0196     		str	r6, [sp, #4]
 855 0048 0094     		str	r4, [sp]
 856 004a FFF7FEFF 		bl	HAL_I2C_Mem_Write
 857              	.LVL44:
 112:Lib/SD3077.c  **** }
 858              		.loc 1 112 1 is_stmt 0 view .LVU206
 859 004e 09B0     		add	sp, sp, #36
 860              		@ sp needed
 861 0050 F0BD     		pop	{r4, r5, r6, r7, pc}
 862              	.L19:
 863 0052 C046     		.align	2
 864              	.L18:
 865 0054 00000000 		.word	hi2c1
 866              		.cfi_endproc
 867              	.LFE43:
 869              		.section	.text.WriteBackData,"ax",%progbits
 870              		.align	1
 871              		.global	WriteBackData
 872              		.syntax unified
 873              		.code	16
 874              		.thumb_func
 876              	WriteBackData:
 877              	.LVL45:
 878              	.LFB44:
 113:Lib/SD3077.c  **** 
 114:Lib/SD3077.c  **** void WriteBackData(uint8_t index, uint8_t *data, uint8_t size){
 879              		.loc 1 114 63 is_stmt 1 view -0
 880              		.cfi_startproc
 881              		@ args = 0, pretend = 0, frame = 0
 882              		@ frame_needed = 0, uses_anonymous_args = 0
 115:Lib/SD3077.c  **** 	if(index > 69) return;
ARM GAS  D:\Temp\ccqeondb.s 			page 20


 883              		.loc 1 115 2 view .LVU208
 114:Lib/SD3077.c  **** 	if(index > 69) return;
 884              		.loc 1 114 63 is_stmt 0 view .LVU209
 885 0000 7FB5     		push	{r0, r1, r2, r3, r4, r5, r6, lr}
 886              	.LCFI10:
 887              		.cfi_def_cfa_offset 32
 888              		.cfi_offset 0, -32
 889              		.cfi_offset 1, -28
 890              		.cfi_offset 2, -24
 891              		.cfi_offset 3, -20
 892              		.cfi_offset 4, -16
 893              		.cfi_offset 5, -12
 894              		.cfi_offset 6, -8
 895              		.cfi_offset 14, -4
 114:Lib/SD3077.c  **** 	if(index > 69) return;
 896              		.loc 1 114 63 view .LVU210
 897 0002 0400     		movs	r4, r0
 898 0004 0D00     		movs	r5, r1
 899 0006 1600     		movs	r6, r2
 900              		.loc 1 115 4 view .LVU211
 901 0008 4528     		cmp	r0, #69
 902 000a 0DD8     		bhi	.L20
 116:Lib/SD3077.c  **** 
 117:Lib/SD3077.c  **** 	// 解除写保护
 118:Lib/SD3077.c  **** 	UnlockWriteProtect();
 903              		.loc 1 118 2 is_stmt 1 view .LVU212
 904 000c FFF7FEFF 		bl	UnlockWriteProtect
 905              	.LVL46:
 119:Lib/SD3077.c  **** 
 120:Lib/SD3077.c  **** 	// 写入备份寄存器
 121:Lib/SD3077.c  **** 	HAL_I2C_Mem_Write(&SD3077_IIC_HANDLE, SD3077_IIC_ADDR_WRITE, 0x2C + index, 1, data, size, HAL_MAX_
 906              		.loc 1 121 2 view .LVU213
 907 0010 0123     		movs	r3, #1
 908 0012 2200     		movs	r2, r4
 909 0014 5B42     		rsbs	r3, r3, #0
 910 0016 0293     		str	r3, [sp, #8]
 911 0018 6421     		movs	r1, #100
 912 001a 0448     		ldr	r0, .L22
 913 001c 2C32     		adds	r2, r2, #44
 914 001e 0196     		str	r6, [sp, #4]
 915 0020 0095     		str	r5, [sp]
 916 0022 0233     		adds	r3, r3, #2
 917 0024 FFF7FEFF 		bl	HAL_I2C_Mem_Write
 918              	.LVL47:
 919              	.L20:
 122:Lib/SD3077.c  **** }
 920              		.loc 1 122 1 is_stmt 0 view .LVU214
 921              		@ sp needed
 922              	.LVL48:
 923              	.LVL49:
 924              	.LVL50:
 925              		.loc 1 122 1 view .LVU215
 926 0028 7FBD     		pop	{r0, r1, r2, r3, r4, r5, r6, pc}
 927              	.L23:
 928 002a C046     		.align	2
 929              	.L22:
 930 002c 00000000 		.word	hi2c1
ARM GAS  D:\Temp\ccqeondb.s 			page 21


 931              		.cfi_endproc
 932              	.LFE44:
 934              		.section	.text.ReadBackData,"ax",%progbits
 935              		.align	1
 936              		.global	ReadBackData
 937              		.syntax unified
 938              		.code	16
 939              		.thumb_func
 941              	ReadBackData:
 942              	.LVL51:
 943              	.LFB45:
 123:Lib/SD3077.c  **** 
 124:Lib/SD3077.c  **** void ReadBackData(uint8_t index, uint8_t *data, uint8_t size){
 944              		.loc 1 124 62 is_stmt 1 view -0
 945              		.cfi_startproc
 946              		@ args = 0, pretend = 0, frame = 0
 947              		@ frame_needed = 0, uses_anonymous_args = 0
 125:Lib/SD3077.c  **** 	if(index > 69) return;
 948              		.loc 1 125 2 view .LVU217
 124:Lib/SD3077.c  **** 	if(index > 69) return;
 949              		.loc 1 124 62 is_stmt 0 view .LVU218
 950 0000 1FB5     		push	{r0, r1, r2, r3, r4, lr}
 951              	.LCFI11:
 952              		.cfi_def_cfa_offset 24
 953              		.cfi_offset 0, -24
 954              		.cfi_offset 1, -20
 955              		.cfi_offset 2, -16
 956              		.cfi_offset 3, -12
 957              		.cfi_offset 4, -8
 958              		.cfi_offset 14, -4
 124:Lib/SD3077.c  **** 	if(index > 69) return;
 959              		.loc 1 124 62 view .LVU219
 960 0002 1300     		movs	r3, r2
 961              		.loc 1 125 4 view .LVU220
 962 0004 4528     		cmp	r0, #69
 963 0006 0BD8     		bhi	.L24
 126:Lib/SD3077.c  **** 
 127:Lib/SD3077.c  **** 	// 从备份寄存器读出
 128:Lib/SD3077.c  **** 	HAL_I2C_Mem_Read(&SD3077_IIC_HANDLE, SD3077_IIC_ADDR_READ, 0x2C + index, 1, data, size, HAL_MAX_DE
 964              		.loc 1 128 2 is_stmt 1 view .LVU221
 965 0008 0124     		movs	r4, #1
 966 000a 0200     		movs	r2, r0
 967              	.LVL52:
 968              		.loc 1 128 2 is_stmt 0 view .LVU222
 969 000c 6442     		rsbs	r4, r4, #0
 970 000e 0193     		str	r3, [sp, #4]
 971 0010 0091     		str	r1, [sp]
 972 0012 0123     		movs	r3, #1
 973              	.LVL53:
 974              		.loc 1 128 2 view .LVU223
 975 0014 6521     		movs	r1, #101
 976              	.LVL54:
 977              		.loc 1 128 2 view .LVU224
 978 0016 0348     		ldr	r0, .L26
 979              	.LVL55:
 980              		.loc 1 128 2 view .LVU225
 981 0018 2C32     		adds	r2, r2, #44
ARM GAS  D:\Temp\ccqeondb.s 			page 22


 982              	.LVL56:
 983              		.loc 1 128 2 view .LVU226
 984 001a 0294     		str	r4, [sp, #8]
 985 001c FFF7FEFF 		bl	HAL_I2C_Mem_Read
 986              	.LVL57:
 987              	.L24:
 129:Lib/SD3077.c  **** }
 988              		.loc 1 129 1 view .LVU227
 989              		@ sp needed
 990 0020 1FBD     		pop	{r0, r1, r2, r3, r4, pc}
 991              	.L27:
 992 0022 C046     		.align	2
 993              	.L26:
 994 0024 00000000 		.word	hi2c1
 995              		.cfi_endproc
 996              	.LFE45:
 998              		.text
 999              	.Letext0:
 1000              		.file 2 "D:\\STM32CubeCLT\\STM32CubeCLT_1.18.0\\GNU-tools-for-STM32\\bin\\../lib/gcc/arm-none-eabi
 1001              		.file 3 "D:\\STM32CubeCLT\\STM32CubeCLT_1.18.0\\GNU-tools-for-STM32\\bin\\../lib/gcc/arm-none-eabi
 1002              		.file 4 "Drivers/CMSIS/Device/ST/STM32F0xx/Include/stm32f030x6.h"
 1003              		.file 5 "Drivers/STM32F0xx_HAL_Driver/Inc/stm32f0xx_hal_def.h"
 1004              		.file 6 "Drivers/STM32F0xx_HAL_Driver/Inc/stm32f0xx_hal_dma.h"
 1005              		.file 7 "Drivers/STM32F0xx_HAL_Driver/Inc/stm32f0xx_hal_i2c.h"
 1006              		.file 8 "Lib/SD3077.h"
 1007              		.file 9 "Inc/i2c.h"
ARM GAS  D:\Temp\ccqeondb.s 			page 23

