ARM GAS  D:\Temp\ccojMvWV.s 			page 1


   1              		.cpu cortex-m0
   2              		.arch armv6s-m
   3              		.fpu softvfp
   4              		.eabi_attribute 20, 1
   5              		.eabi_attribute 21, 1
   6              		.eabi_attribute 23, 3
   7              		.eabi_attribute 24, 1
   8              		.eabi_attribute 25, 1
   9              		.eabi_attribute 26, 1
  10              		.eabi_attribute 30, 4
  11              		.eabi_attribute 34, 0
  12              		.eabi_attribute 18, 4
  13              		.file	"system_stm32f0xx.c"
  14              		.text
  15              	.Ltext0:
  16              		.cfi_sections	.debug_frame
  17              		.file 1 "Src/system_stm32f0xx.c"
  18              		.section	.text.SystemInit,"ax",%progbits
  19              		.align	1
  20              		.global	SystemInit
  21              		.syntax unified
  22              		.code	16
  23              		.thumb_func
  25              	SystemInit:
  26              	.LFB37:
   1:Src/system_stm32f0xx.c **** /**
   2:Src/system_stm32f0xx.c ****   ******************************************************************************
   3:Src/system_stm32f0xx.c ****   * @file    system_stm32f0xx.c
   4:Src/system_stm32f0xx.c ****   * @author  MCD Application Team
   5:Src/system_stm32f0xx.c ****   * @brief   CMSIS Cortex-M0 Device Peripheral Access Layer System Source File.
   6:Src/system_stm32f0xx.c ****   *
   7:Src/system_stm32f0xx.c ****   * 1. This file provides two functions and one global variable to be called from
   8:Src/system_stm32f0xx.c ****   *    user application:
   9:Src/system_stm32f0xx.c ****   *      - SystemInit(): This function is called at startup just after reset and 
  10:Src/system_stm32f0xx.c ****   *                      before branch to main program. This call is made inside
  11:Src/system_stm32f0xx.c ****   *                      the "startup_stm32f0xx.s" file.
  12:Src/system_stm32f0xx.c ****   *
  13:Src/system_stm32f0xx.c ****   *      - SystemCoreClock variable: Contains the core clock (HCLK), it can be used
  14:Src/system_stm32f0xx.c ****   *                                  by the user application to setup the SysTick
  15:Src/system_stm32f0xx.c ****   *                                  timer or configure other parameters.
  16:Src/system_stm32f0xx.c ****   *
  17:Src/system_stm32f0xx.c ****   *      - SystemCoreClockUpdate(): Updates the variable SystemCoreClock and must
  18:Src/system_stm32f0xx.c ****   *                                 be called whenever the core clock is changed
  19:Src/system_stm32f0xx.c ****   *                                 during program execution.
  20:Src/system_stm32f0xx.c ****   *
  21:Src/system_stm32f0xx.c ****   * 2. After each device reset the HSI (8 MHz) is used as system clock source.
  22:Src/system_stm32f0xx.c ****   *    Then SystemInit() function is called, in "startup_stm32f0xx.s" file, to
  23:Src/system_stm32f0xx.c ****   *    configure the system clock before to branch to main program.
  24:Src/system_stm32f0xx.c ****   *
  25:Src/system_stm32f0xx.c ****   * 3. This file configures the system clock as follows:
  26:Src/system_stm32f0xx.c ****   *=============================================================================
  27:Src/system_stm32f0xx.c ****   *                         Supported STM32F0xx device
  28:Src/system_stm32f0xx.c ****   *-----------------------------------------------------------------------------
  29:Src/system_stm32f0xx.c ****   *        System Clock source                    | HSI
  30:Src/system_stm32f0xx.c ****   *-----------------------------------------------------------------------------
  31:Src/system_stm32f0xx.c ****   *        SYSCLK(Hz)                             | 8000000
  32:Src/system_stm32f0xx.c ****   *-----------------------------------------------------------------------------
ARM GAS  D:\Temp\ccojMvWV.s 			page 2


  33:Src/system_stm32f0xx.c ****   *        HCLK(Hz)                               | 8000000
  34:Src/system_stm32f0xx.c ****   *-----------------------------------------------------------------------------
  35:Src/system_stm32f0xx.c ****   *        AHB Prescaler                          | 1
  36:Src/system_stm32f0xx.c ****   *-----------------------------------------------------------------------------
  37:Src/system_stm32f0xx.c ****   *        APB1 Prescaler                         | 1
  38:Src/system_stm32f0xx.c ****   *-----------------------------------------------------------------------------
  39:Src/system_stm32f0xx.c ****   *=============================================================================
  40:Src/system_stm32f0xx.c ****   ******************************************************************************
  41:Src/system_stm32f0xx.c ****   * @attention
  42:Src/system_stm32f0xx.c ****   *
  43:Src/system_stm32f0xx.c ****   * <h2><center>&copy; COPYRIGHT(c) 2016 STMicroelectronics</center></h2>
  44:Src/system_stm32f0xx.c ****   *
  45:Src/system_stm32f0xx.c ****   * Redistribution and use in source and binary forms, with or without modification,
  46:Src/system_stm32f0xx.c ****   * are permitted provided that the following conditions are met:
  47:Src/system_stm32f0xx.c ****   *   1. Redistributions of source code must retain the above copyright notice,
  48:Src/system_stm32f0xx.c ****   *      this list of conditions and the following disclaimer.
  49:Src/system_stm32f0xx.c ****   *   2. Redistributions in binary form must reproduce the above copyright notice,
  50:Src/system_stm32f0xx.c ****   *      this list of conditions and the following disclaimer in the documentation
  51:Src/system_stm32f0xx.c ****   *      and/or other materials provided with the distribution.
  52:Src/system_stm32f0xx.c ****   *   3. Neither the name of STMicroelectronics nor the names of its contributors
  53:Src/system_stm32f0xx.c ****   *      may be used to endorse or promote products derived from this software
  54:Src/system_stm32f0xx.c ****   *      without specific prior written permission.
  55:Src/system_stm32f0xx.c ****   *
  56:Src/system_stm32f0xx.c ****   * THIS SOFTWARE IS PROVIDED BY THE COPYRIGHT HOLDERS AND CONTRIBUTORS "AS IS"
  57:Src/system_stm32f0xx.c ****   * AND ANY EXPRESS OR IMPLIED WARRANTIES, INCLUDING, BUT NOT LIMITED TO, THE
  58:Src/system_stm32f0xx.c ****   * IMPLIED WARRANTIES OF MERCHANTABILITY AND FITNESS FOR A PARTICULAR PURPOSE ARE
  59:Src/system_stm32f0xx.c ****   * DISCLAIMED. IN NO EVENT SHALL THE COPYRIGHT HOLDER OR CONTRIBUTORS BE LIABLE
  60:Src/system_stm32f0xx.c ****   * FOR ANY DIRECT, INDIRECT, INCIDENTAL, SPECIAL, EXEMPLARY, OR CONSEQUENTIAL
  61:Src/system_stm32f0xx.c ****   * DAMAGES (INCLUDING, BUT NOT LIMITED TO, PROCUREMENT OF SUBSTITUTE GOODS OR
  62:Src/system_stm32f0xx.c ****   * SERVICES; LOSS OF USE, DATA, OR PROFITS; OR BUSINESS INTERRUPTION) HOWEVER
  63:Src/system_stm32f0xx.c ****   * CAUSED AND ON ANY THEORY OF LIABILITY, WHETHER IN CONTRACT, STRICT LIABILITY,
  64:Src/system_stm32f0xx.c ****   * OR TORT (INCLUDING NEGLIGENCE OR OTHERWISE) ARISING IN ANY WAY OUT OF THE USE
  65:Src/system_stm32f0xx.c ****   * OF THIS SOFTWARE, EVEN IF ADVISED OF THE POSSIBILITY OF SUCH DAMAGE.
  66:Src/system_stm32f0xx.c ****   *
  67:Src/system_stm32f0xx.c ****   ******************************************************************************
  68:Src/system_stm32f0xx.c ****   */
  69:Src/system_stm32f0xx.c **** 
  70:Src/system_stm32f0xx.c **** /** @addtogroup CMSIS
  71:Src/system_stm32f0xx.c ****   * @{
  72:Src/system_stm32f0xx.c ****   */
  73:Src/system_stm32f0xx.c **** 
  74:Src/system_stm32f0xx.c **** /** @addtogroup stm32f0xx_system
  75:Src/system_stm32f0xx.c ****   * @{
  76:Src/system_stm32f0xx.c ****   */
  77:Src/system_stm32f0xx.c **** 
  78:Src/system_stm32f0xx.c **** /** @addtogroup STM32F0xx_System_Private_Includes
  79:Src/system_stm32f0xx.c ****   * @{
  80:Src/system_stm32f0xx.c ****   */
  81:Src/system_stm32f0xx.c **** 
  82:Src/system_stm32f0xx.c **** #include "stm32f0xx.h"
  83:Src/system_stm32f0xx.c **** 
  84:Src/system_stm32f0xx.c **** /**
  85:Src/system_stm32f0xx.c ****   * @}
  86:Src/system_stm32f0xx.c ****   */
  87:Src/system_stm32f0xx.c **** 
  88:Src/system_stm32f0xx.c **** /** @addtogroup STM32F0xx_System_Private_TypesDefinitions
  89:Src/system_stm32f0xx.c ****   * @{
ARM GAS  D:\Temp\ccojMvWV.s 			page 3


  90:Src/system_stm32f0xx.c ****   */
  91:Src/system_stm32f0xx.c **** 
  92:Src/system_stm32f0xx.c **** /**
  93:Src/system_stm32f0xx.c ****   * @}
  94:Src/system_stm32f0xx.c ****   */
  95:Src/system_stm32f0xx.c **** 
  96:Src/system_stm32f0xx.c **** /** @addtogroup STM32F0xx_System_Private_Defines
  97:Src/system_stm32f0xx.c ****   * @{
  98:Src/system_stm32f0xx.c ****   */
  99:Src/system_stm32f0xx.c **** #if !defined  (HSE_VALUE) 
 100:Src/system_stm32f0xx.c ****   #define HSE_VALUE    ((uint32_t)8000000) /*!< Default value of the External oscillator in Hz.
 101:Src/system_stm32f0xx.c ****                                                 This value can be provided and adapted by the user 
 102:Src/system_stm32f0xx.c **** #endif /* HSE_VALUE */
 103:Src/system_stm32f0xx.c **** 
 104:Src/system_stm32f0xx.c **** #if !defined  (HSI_VALUE)
 105:Src/system_stm32f0xx.c ****   #define HSI_VALUE    ((uint32_t)8000000) /*!< Default value of the Internal oscillator in Hz.
 106:Src/system_stm32f0xx.c ****                                                 This value can be provided and adapted by the user 
 107:Src/system_stm32f0xx.c **** #endif /* HSI_VALUE */
 108:Src/system_stm32f0xx.c **** 
 109:Src/system_stm32f0xx.c **** #if !defined (HSI48_VALUE)
 110:Src/system_stm32f0xx.c **** #define HSI48_VALUE    ((uint32_t)48000000) /*!< Default value of the HSI48 Internal oscillator in 
 111:Src/system_stm32f0xx.c ****                                                  This value can be provided and adapted by the user
 112:Src/system_stm32f0xx.c **** #endif /* HSI48_VALUE */
 113:Src/system_stm32f0xx.c **** /**
 114:Src/system_stm32f0xx.c ****   * @}
 115:Src/system_stm32f0xx.c ****   */
 116:Src/system_stm32f0xx.c **** 
 117:Src/system_stm32f0xx.c **** /** @addtogroup STM32F0xx_System_Private_Macros
 118:Src/system_stm32f0xx.c ****   * @{
 119:Src/system_stm32f0xx.c ****   */
 120:Src/system_stm32f0xx.c **** 
 121:Src/system_stm32f0xx.c **** /**
 122:Src/system_stm32f0xx.c ****   * @}
 123:Src/system_stm32f0xx.c ****   */
 124:Src/system_stm32f0xx.c **** 
 125:Src/system_stm32f0xx.c **** /** @addtogroup STM32F0xx_System_Private_Variables
 126:Src/system_stm32f0xx.c ****   * @{
 127:Src/system_stm32f0xx.c ****   */
 128:Src/system_stm32f0xx.c ****   /* This variable is updated in three ways:
 129:Src/system_stm32f0xx.c ****       1) by calling CMSIS function SystemCoreClockUpdate()
 130:Src/system_stm32f0xx.c ****       2) by calling HAL API function HAL_RCC_GetHCLKFreq()
 131:Src/system_stm32f0xx.c ****       3) each time HAL_RCC_ClockConfig() is called to configure the system clock frequency
 132:Src/system_stm32f0xx.c ****          Note: If you use this function to configure the system clock there is no need to
 133:Src/system_stm32f0xx.c ****                call the 2 first functions listed above, since SystemCoreClock variable is 
 134:Src/system_stm32f0xx.c ****                updated automatically.
 135:Src/system_stm32f0xx.c ****   */
 136:Src/system_stm32f0xx.c **** uint32_t SystemCoreClock = 8000000;
 137:Src/system_stm32f0xx.c **** 
 138:Src/system_stm32f0xx.c **** const uint8_t AHBPrescTable[16] = {0, 0, 0, 0, 0, 0, 0, 0, 1, 2, 3, 4, 6, 7, 8, 9};
 139:Src/system_stm32f0xx.c **** const uint8_t APBPrescTable[8]  = {0, 0, 0, 0, 1, 2, 3, 4};
 140:Src/system_stm32f0xx.c **** 
 141:Src/system_stm32f0xx.c **** /**
 142:Src/system_stm32f0xx.c ****   * @}
 143:Src/system_stm32f0xx.c ****   */
 144:Src/system_stm32f0xx.c **** 
 145:Src/system_stm32f0xx.c **** /** @addtogroup STM32F0xx_System_Private_FunctionPrototypes
 146:Src/system_stm32f0xx.c ****   * @{
ARM GAS  D:\Temp\ccojMvWV.s 			page 4


 147:Src/system_stm32f0xx.c ****   */
 148:Src/system_stm32f0xx.c **** 
 149:Src/system_stm32f0xx.c **** /**
 150:Src/system_stm32f0xx.c ****   * @}
 151:Src/system_stm32f0xx.c ****   */
 152:Src/system_stm32f0xx.c **** 
 153:Src/system_stm32f0xx.c **** /** @addtogroup STM32F0xx_System_Private_Functions
 154:Src/system_stm32f0xx.c ****   * @{
 155:Src/system_stm32f0xx.c ****   */
 156:Src/system_stm32f0xx.c **** 
 157:Src/system_stm32f0xx.c **** /**
 158:Src/system_stm32f0xx.c ****   * @brief  Setup the microcontroller system.
 159:Src/system_stm32f0xx.c ****   *         Initialize the default HSI clock source, vector table location and the PLL configuratio
 160:Src/system_stm32f0xx.c ****   * @param  None
 161:Src/system_stm32f0xx.c ****   * @retval None
 162:Src/system_stm32f0xx.c ****   */
 163:Src/system_stm32f0xx.c **** void SystemInit(void)
 164:Src/system_stm32f0xx.c **** {
  27              		.loc 1 164 1 view -0
  28              		.cfi_startproc
  29              		@ args = 0, pretend = 0, frame = 0
  30              		@ frame_needed = 0, uses_anonymous_args = 0
  31              		@ link register save eliminated.
 165:Src/system_stm32f0xx.c ****   /* Reset the RCC clock configuration to the default reset state ------------*/
 166:Src/system_stm32f0xx.c ****   /* Set HSION bit */
 167:Src/system_stm32f0xx.c ****   RCC->CR |= (uint32_t)0x00000001U;
  32              		.loc 1 167 3 view .LVU1
  33              		.loc 1 167 11 is_stmt 0 view .LVU2
  34 0000 0121     		movs	r1, #1
 168:Src/system_stm32f0xx.c **** 
 169:Src/system_stm32f0xx.c **** #if defined (STM32F051x8) || defined (STM32F058x8)
 170:Src/system_stm32f0xx.c ****   /* Reset SW[1:0], HPRE[3:0], PPRE[2:0], ADCPRE and MCOSEL[2:0] bits */
 171:Src/system_stm32f0xx.c ****   RCC->CFGR &= (uint32_t)0xF8FFB80CU;
 172:Src/system_stm32f0xx.c **** #else
 173:Src/system_stm32f0xx.c ****   /* Reset SW[1:0], HPRE[3:0], PPRE[2:0], ADCPRE, MCOSEL[2:0], MCOPRE[2:0] and PLLNODIV bits */
 174:Src/system_stm32f0xx.c ****   RCC->CFGR &= (uint32_t)0x08FFB80CU;
 175:Src/system_stm32f0xx.c **** #endif /* STM32F051x8 or STM32F058x8 */
 176:Src/system_stm32f0xx.c ****   
 177:Src/system_stm32f0xx.c ****   /* Reset HSEON, CSSON and PLLON bits */
 178:Src/system_stm32f0xx.c ****   RCC->CR &= (uint32_t)0xFEF6FFFFU;
 179:Src/system_stm32f0xx.c **** 
 180:Src/system_stm32f0xx.c ****   /* Reset HSEBYP bit */
 181:Src/system_stm32f0xx.c ****   RCC->CR &= (uint32_t)0xFFFBFFFFU;
 182:Src/system_stm32f0xx.c **** 
 183:Src/system_stm32f0xx.c ****   /* Reset PLLSRC, PLLXTPRE and PLLMUL[3:0] bits */
 184:Src/system_stm32f0xx.c ****   RCC->CFGR &= (uint32_t)0xFFC0FFFFU;
 185:Src/system_stm32f0xx.c **** 
 186:Src/system_stm32f0xx.c ****   /* Reset PREDIV[3:0] bits */
 187:Src/system_stm32f0xx.c ****   RCC->CFGR2 &= (uint32_t)0xFFFFFFF0U;
 188:Src/system_stm32f0xx.c **** 
 189:Src/system_stm32f0xx.c **** #if defined (STM32F072xB) || defined (STM32F078xx)
 190:Src/system_stm32f0xx.c ****   /* Reset USART2SW[1:0], USART1SW[1:0], I2C1SW, CECSW, USBSW and ADCSW bits */
 191:Src/system_stm32f0xx.c ****   RCC->CFGR3 &= (uint32_t)0xFFFCFE2CU;
 192:Src/system_stm32f0xx.c **** #elif defined (STM32F071xB)
 193:Src/system_stm32f0xx.c ****   /* Reset USART2SW[1:0], USART1SW[1:0], I2C1SW, CECSW and ADCSW bits */
 194:Src/system_stm32f0xx.c ****   RCC->CFGR3 &= (uint32_t)0xFFFFCEACU;
 195:Src/system_stm32f0xx.c **** #elif defined (STM32F091xC) || defined (STM32F098xx)
ARM GAS  D:\Temp\ccojMvWV.s 			page 5


 196:Src/system_stm32f0xx.c ****   /* Reset USART3SW[1:0], USART2SW[1:0], USART1SW[1:0], I2C1SW, CECSW and ADCSW bits */
 197:Src/system_stm32f0xx.c ****   RCC->CFGR3 &= (uint32_t)0xFFF0FEACU;
 198:Src/system_stm32f0xx.c **** #elif defined (STM32F030x6) || defined (STM32F030x8) || defined (STM32F031x6) || defined (STM32F038
 199:Src/system_stm32f0xx.c ****   /* Reset USART1SW[1:0], I2C1SW and ADCSW bits */
 200:Src/system_stm32f0xx.c ****   RCC->CFGR3 &= (uint32_t)0xFFFFFEECU;
 201:Src/system_stm32f0xx.c **** #elif defined (STM32F051x8) || defined (STM32F058xx)
 202:Src/system_stm32f0xx.c ****   /* Reset USART1SW[1:0], I2C1SW, CECSW and ADCSW bits */
 203:Src/system_stm32f0xx.c ****   RCC->CFGR3 &= (uint32_t)0xFFFFFEACU;
 204:Src/system_stm32f0xx.c **** #elif defined (STM32F042x6) || defined (STM32F048xx)
 205:Src/system_stm32f0xx.c ****   /* Reset USART1SW[1:0], I2C1SW, CECSW, USBSW and ADCSW bits */
 206:Src/system_stm32f0xx.c ****   RCC->CFGR3 &= (uint32_t)0xFFFFFE2CU;
 207:Src/system_stm32f0xx.c **** #elif defined (STM32F070x6) || defined (STM32F070xB)
 208:Src/system_stm32f0xx.c ****   /* Reset USART1SW[1:0], I2C1SW, USBSW and ADCSW bits */
 209:Src/system_stm32f0xx.c ****   RCC->CFGR3 &= (uint32_t)0xFFFFFE6CU;
 210:Src/system_stm32f0xx.c ****   /* Set default USB clock to PLLCLK, since there is no HSI48 */
 211:Src/system_stm32f0xx.c ****   RCC->CFGR3 |= (uint32_t)0x00000080U;  
 212:Src/system_stm32f0xx.c **** #else
 213:Src/system_stm32f0xx.c ****  #warning "No target selected"
 214:Src/system_stm32f0xx.c **** #endif
 215:Src/system_stm32f0xx.c **** 
 216:Src/system_stm32f0xx.c ****   /* Reset HSI14 bit */
 217:Src/system_stm32f0xx.c ****   RCC->CR2 &= (uint32_t)0xFFFFFFFEU;
 218:Src/system_stm32f0xx.c **** 
 219:Src/system_stm32f0xx.c ****   /* Disable all interrupts */
 220:Src/system_stm32f0xx.c ****   RCC->CIR = 0x00000000U;
 221:Src/system_stm32f0xx.c **** 
 222:Src/system_stm32f0xx.c **** }
  35              		.loc 1 222 1 view .LVU3
  36              		@ sp needed
 167:Src/system_stm32f0xx.c **** 
  37              		.loc 1 167 6 view .LVU4
  38 0002 114B     		ldr	r3, .L2
 174:Src/system_stm32f0xx.c **** #endif /* STM32F051x8 or STM32F058x8 */
  39              		.loc 1 174 13 view .LVU5
  40 0004 1148     		ldr	r0, .L2+4
 167:Src/system_stm32f0xx.c **** 
  41              		.loc 1 167 6 view .LVU6
  42 0006 1A68     		ldr	r2, [r3]
 167:Src/system_stm32f0xx.c **** 
  43              		.loc 1 167 11 view .LVU7
  44 0008 0A43     		orrs	r2, r1
  45 000a 1A60     		str	r2, [r3]
 174:Src/system_stm32f0xx.c **** #endif /* STM32F051x8 or STM32F058x8 */
  46              		.loc 1 174 3 is_stmt 1 view .LVU8
 174:Src/system_stm32f0xx.c **** #endif /* STM32F051x8 or STM32F058x8 */
  47              		.loc 1 174 6 is_stmt 0 view .LVU9
  48 000c 5A68     		ldr	r2, [r3, #4]
 174:Src/system_stm32f0xx.c **** #endif /* STM32F051x8 or STM32F058x8 */
  49              		.loc 1 174 13 view .LVU10
  50 000e 0240     		ands	r2, r0
  51 0010 5A60     		str	r2, [r3, #4]
 178:Src/system_stm32f0xx.c **** 
  52              		.loc 1 178 3 is_stmt 1 view .LVU11
 178:Src/system_stm32f0xx.c **** 
  53              		.loc 1 178 6 is_stmt 0 view .LVU12
  54 0012 1A68     		ldr	r2, [r3]
 178:Src/system_stm32f0xx.c **** 
ARM GAS  D:\Temp\ccojMvWV.s 			page 6


  55              		.loc 1 178 11 view .LVU13
  56 0014 0E48     		ldr	r0, .L2+8
  57 0016 0240     		ands	r2, r0
  58 0018 1A60     		str	r2, [r3]
 181:Src/system_stm32f0xx.c **** 
  59              		.loc 1 181 3 is_stmt 1 view .LVU14
 181:Src/system_stm32f0xx.c **** 
  60              		.loc 1 181 6 is_stmt 0 view .LVU15
  61 001a 1A68     		ldr	r2, [r3]
 181:Src/system_stm32f0xx.c **** 
  62              		.loc 1 181 11 view .LVU16
  63 001c 0D48     		ldr	r0, .L2+12
  64 001e 0240     		ands	r2, r0
  65 0020 1A60     		str	r2, [r3]
 184:Src/system_stm32f0xx.c **** 
  66              		.loc 1 184 3 is_stmt 1 view .LVU17
 184:Src/system_stm32f0xx.c **** 
  67              		.loc 1 184 6 is_stmt 0 view .LVU18
  68 0022 5A68     		ldr	r2, [r3, #4]
 184:Src/system_stm32f0xx.c **** 
  69              		.loc 1 184 13 view .LVU19
  70 0024 0C48     		ldr	r0, .L2+16
  71 0026 0240     		ands	r2, r0
 187:Src/system_stm32f0xx.c **** 
  72              		.loc 1 187 14 view .LVU20
  73 0028 0F20     		movs	r0, #15
 184:Src/system_stm32f0xx.c **** 
  74              		.loc 1 184 13 view .LVU21
  75 002a 5A60     		str	r2, [r3, #4]
 187:Src/system_stm32f0xx.c **** 
  76              		.loc 1 187 3 is_stmt 1 view .LVU22
 187:Src/system_stm32f0xx.c **** 
  77              		.loc 1 187 6 is_stmt 0 view .LVU23
  78 002c DA6A     		ldr	r2, [r3, #44]
 187:Src/system_stm32f0xx.c **** 
  79              		.loc 1 187 14 view .LVU24
  80 002e 8243     		bics	r2, r0
  81 0030 DA62     		str	r2, [r3, #44]
 200:Src/system_stm32f0xx.c **** #elif defined (STM32F051x8) || defined (STM32F058xx)
  82              		.loc 1 200 3 is_stmt 1 view .LVU25
 200:Src/system_stm32f0xx.c **** #elif defined (STM32F051x8) || defined (STM32F058xx)
  83              		.loc 1 200 6 is_stmt 0 view .LVU26
  84 0032 1A6B     		ldr	r2, [r3, #48]
 200:Src/system_stm32f0xx.c **** #elif defined (STM32F051x8) || defined (STM32F058xx)
  85              		.loc 1 200 14 view .LVU27
  86 0034 0948     		ldr	r0, .L2+20
  87 0036 0240     		ands	r2, r0
  88 0038 1A63     		str	r2, [r3, #48]
 217:Src/system_stm32f0xx.c **** 
  89              		.loc 1 217 3 is_stmt 1 view .LVU28
 217:Src/system_stm32f0xx.c **** 
  90              		.loc 1 217 6 is_stmt 0 view .LVU29
  91 003a 5A6B     		ldr	r2, [r3, #52]
 217:Src/system_stm32f0xx.c **** 
  92              		.loc 1 217 12 view .LVU30
  93 003c 8A43     		bics	r2, r1
  94 003e 5A63     		str	r2, [r3, #52]
ARM GAS  D:\Temp\ccojMvWV.s 			page 7


 220:Src/system_stm32f0xx.c **** 
  95              		.loc 1 220 3 is_stmt 1 view .LVU31
 220:Src/system_stm32f0xx.c **** 
  96              		.loc 1 220 12 is_stmt 0 view .LVU32
  97 0040 0022     		movs	r2, #0
  98 0042 9A60     		str	r2, [r3, #8]
  99              		.loc 1 222 1 view .LVU33
 100 0044 7047     		bx	lr
 101              	.L3:
 102 0046 C046     		.align	2
 103              	.L2:
 104 0048 00100240 		.word	1073876992
 105 004c 0CB8FF08 		.word	150976524
 106 0050 FFFFF6FE 		.word	-17367041
 107 0054 FFFFFBFF 		.word	-262145
 108 0058 FFFFC0FF 		.word	-4128769
 109 005c ECFEFFFF 		.word	-276
 110              		.cfi_endproc
 111              	.LFE37:
 113              		.global	__aeabi_uidiv
 114              		.global	__aeabi_idiv
 115              		.section	.text.SystemCoreClockUpdate,"ax",%progbits
 116              		.align	1
 117              		.global	SystemCoreClockUpdate
 118              		.syntax unified
 119              		.code	16
 120              		.thumb_func
 122              	SystemCoreClockUpdate:
 123              	.LFB38:
 223:Src/system_stm32f0xx.c **** 
 224:Src/system_stm32f0xx.c **** /**
 225:Src/system_stm32f0xx.c ****    * @brief  Update SystemCoreClock variable according to Clock Register Values.
 226:Src/system_stm32f0xx.c ****   *         The SystemCoreClock variable contains the core clock (HCLK), it can
 227:Src/system_stm32f0xx.c ****   *         be used by the user application to setup the SysTick timer or configure
 228:Src/system_stm32f0xx.c ****   *         other parameters.
 229:Src/system_stm32f0xx.c ****   *
 230:Src/system_stm32f0xx.c ****   * @note   Each time the core clock (HCLK) changes, this function must be called
 231:Src/system_stm32f0xx.c ****   *         to update SystemCoreClock variable value. Otherwise, any configuration
 232:Src/system_stm32f0xx.c ****   *         based on this variable will be incorrect.
 233:Src/system_stm32f0xx.c ****   *
 234:Src/system_stm32f0xx.c ****   * @note   - The system frequency computed by this function is not the real
 235:Src/system_stm32f0xx.c ****   *           frequency in the chip. It is calculated based on the predefined
 236:Src/system_stm32f0xx.c ****   *           constant and the selected clock source:
 237:Src/system_stm32f0xx.c ****   *
 238:Src/system_stm32f0xx.c ****   *           - If SYSCLK source is HSI, SystemCoreClock will contain the HSI_VALUE(*)
 239:Src/system_stm32f0xx.c ****   *
 240:Src/system_stm32f0xx.c ****   *           - If SYSCLK source is HSE, SystemCoreClock will contain the HSE_VALUE(**)
 241:Src/system_stm32f0xx.c ****   *
 242:Src/system_stm32f0xx.c ****   *           - If SYSCLK source is PLL, SystemCoreClock will contain the HSE_VALUE(**)
 243:Src/system_stm32f0xx.c ****   *             or HSI_VALUE(*) multiplied/divided by the PLL factors.
 244:Src/system_stm32f0xx.c ****   *
 245:Src/system_stm32f0xx.c ****   *         (*) HSI_VALUE is a constant defined in stm32f0xx_hal.h file (default value
 246:Src/system_stm32f0xx.c ****   *             8 MHz) but the real value may vary depending on the variations
 247:Src/system_stm32f0xx.c ****   *             in voltage and temperature.
 248:Src/system_stm32f0xx.c ****   *
 249:Src/system_stm32f0xx.c ****   *         (**) HSE_VALUE is a constant defined in stm32f0xx_hal.h file (default value
 250:Src/system_stm32f0xx.c ****   *              8 MHz), user has to ensure that HSE_VALUE is same as the real
ARM GAS  D:\Temp\ccojMvWV.s 			page 8


 251:Src/system_stm32f0xx.c ****   *              frequency of the crystal used. Otherwise, this function may
 252:Src/system_stm32f0xx.c ****   *              have wrong result.
 253:Src/system_stm32f0xx.c ****   *
 254:Src/system_stm32f0xx.c ****   *         - The result of this function could be not correct when using fractional
 255:Src/system_stm32f0xx.c ****   *           value for HSE crystal.
 256:Src/system_stm32f0xx.c ****   *
 257:Src/system_stm32f0xx.c ****   * @param  None
 258:Src/system_stm32f0xx.c ****   * @retval None
 259:Src/system_stm32f0xx.c ****   */
 260:Src/system_stm32f0xx.c **** void SystemCoreClockUpdate (void)
 261:Src/system_stm32f0xx.c **** {
 124              		.loc 1 261 1 is_stmt 1 view -0
 125              		.cfi_startproc
 126              		@ args = 0, pretend = 0, frame = 0
 127              		@ frame_needed = 0, uses_anonymous_args = 0
 262:Src/system_stm32f0xx.c ****   uint32_t tmp = 0, pllmull = 0, pllsource = 0, predivfactor = 0;
 128              		.loc 1 262 3 view .LVU35
 129              	.LVL0:
 263:Src/system_stm32f0xx.c **** 
 264:Src/system_stm32f0xx.c ****   /* Get SYSCLK source -------------------------------------------------------*/
 265:Src/system_stm32f0xx.c ****   tmp = RCC->CFGR & RCC_CFGR_SWS;
 130              		.loc 1 265 3 view .LVU36
 131              		.loc 1 265 7 is_stmt 0 view .LVU37
 132 0000 0C22     		movs	r2, #12
 261:Src/system_stm32f0xx.c ****   uint32_t tmp = 0, pllmull = 0, pllsource = 0, predivfactor = 0;
 133              		.loc 1 261 1 view .LVU38
 134 0002 70B5     		push	{r4, r5, r6, lr}
 135              	.LCFI0:
 136              		.cfi_def_cfa_offset 16
 137              		.cfi_offset 4, -16
 138              		.cfi_offset 5, -12
 139              		.cfi_offset 6, -8
 140              		.cfi_offset 14, -4
 141              		.loc 1 265 12 view .LVU39
 142 0004 104D     		ldr	r5, .L9
 143 0006 6B68     		ldr	r3, [r5, #4]
 144              	.LVL1:
 266:Src/system_stm32f0xx.c **** 
 267:Src/system_stm32f0xx.c ****   switch (tmp)
 145              		.loc 1 267 3 is_stmt 1 view .LVU40
 265:Src/system_stm32f0xx.c **** 
 146              		.loc 1 265 7 is_stmt 0 view .LVU41
 147 0008 1340     		ands	r3, r2
 148              	.LVL2:
 149              		.loc 1 267 3 view .LVU42
 150 000a 082B     		cmp	r3, #8
 151 000c 19D1     		bne	.L7
 268:Src/system_stm32f0xx.c ****   {
 269:Src/system_stm32f0xx.c ****     case RCC_CFGR_SWS_HSI:  /* HSI used as system clock */
 270:Src/system_stm32f0xx.c ****       SystemCoreClock = HSI_VALUE;
 271:Src/system_stm32f0xx.c ****       break;
 272:Src/system_stm32f0xx.c ****     case RCC_CFGR_SWS_HSE:  /* HSE used as system clock */
 273:Src/system_stm32f0xx.c ****       SystemCoreClock = HSE_VALUE;
 274:Src/system_stm32f0xx.c ****       break;
 275:Src/system_stm32f0xx.c ****     case RCC_CFGR_SWS_PLL:  /* PLL used as system clock */
 276:Src/system_stm32f0xx.c ****       /* Get PLL clock source and multiplication factor ----------------------*/
 277:Src/system_stm32f0xx.c ****       pllmull = RCC->CFGR & RCC_CFGR_PLLMUL;
ARM GAS  D:\Temp\ccojMvWV.s 			page 9


 152              		.loc 1 277 7 is_stmt 1 view .LVU43
 153              		.loc 1 277 20 is_stmt 0 view .LVU44
 154 000e 6868     		ldr	r0, [r5, #4]
 155              	.LVL3:
 278:Src/system_stm32f0xx.c ****       pllsource = RCC->CFGR & RCC_CFGR_PLLSRC;
 156              		.loc 1 278 7 is_stmt 1 view .LVU45
 279:Src/system_stm32f0xx.c ****       pllmull = ( pllmull >> 18) + 2;
 157              		.loc 1 279 27 is_stmt 0 view .LVU46
 158 0010 0733     		adds	r3, r3, #7
 159              	.LVL4:
 278:Src/system_stm32f0xx.c ****       pllsource = RCC->CFGR & RCC_CFGR_PLLSRC;
 160              		.loc 1 278 22 view .LVU47
 161 0012 6A68     		ldr	r2, [r5, #4]
 162              	.LVL5:
 163              		.loc 1 279 7 is_stmt 1 view .LVU48
 164              		.loc 1 279 27 is_stmt 0 view .LVU49
 165 0014 800C     		lsrs	r0, r0, #18
 166              	.LVL6:
 167              		.loc 1 279 27 view .LVU50
 168 0016 1840     		ands	r0, r3
 280:Src/system_stm32f0xx.c ****       predivfactor = (RCC->CFGR2 & RCC_CFGR2_PREDIV) + 1;
 169              		.loc 1 280 26 view .LVU51
 170 0018 E96A     		ldr	r1, [r5, #44]
 279:Src/system_stm32f0xx.c ****       pllmull = ( pllmull >> 18) + 2;
 171              		.loc 1 279 15 view .LVU52
 172 001a 841C     		adds	r4, r0, #2
 173              	.LVL7:
 174              		.loc 1 280 7 is_stmt 1 view .LVU53
 281:Src/system_stm32f0xx.c **** 
 282:Src/system_stm32f0xx.c ****       if (pllsource == RCC_CFGR_PLLSRC_HSE_PREDIV)
 175              		.loc 1 282 7 view .LVU54
 176              		.loc 1 282 10 is_stmt 0 view .LVU55
 177 001c D203     		lsls	r2, r2, #15
 178 001e 0ED5     		bpl	.L6
 179              	.LVL8:
 283:Src/system_stm32f0xx.c ****       {
 284:Src/system_stm32f0xx.c ****         /* HSE used as PLL clock source : SystemCoreClock = HSE/PREDIV * PLLMUL */
 285:Src/system_stm32f0xx.c ****         SystemCoreClock = (HSE_VALUE/predivfactor) * pllmull;
 180              		.loc 1 285 9 is_stmt 1 view .LVU56
 280:Src/system_stm32f0xx.c **** 
 181              		.loc 1 280 34 is_stmt 0 view .LVU57
 182 0020 1940     		ands	r1, r3
 183              	.LVL9:
 184              		.loc 1 285 37 view .LVU58
 185 0022 0A48     		ldr	r0, .L9+4
 280:Src/system_stm32f0xx.c **** 
 186              		.loc 1 280 20 view .LVU59
 187 0024 0131     		adds	r1, r1, #1
 188              		.loc 1 285 37 view .LVU60
 189 0026 FFF7FEFF 		bl	__aeabi_uidiv
 190              	.LVL10:
 191              	.L8:
 286:Src/system_stm32f0xx.c ****       }
 287:Src/system_stm32f0xx.c **** #if defined(STM32F042x6) || defined(STM32F048xx) || defined(STM32F072xB) || defined(STM32F078xx) ||
 288:Src/system_stm32f0xx.c ****       else if (pllsource == RCC_CFGR_PLLSRC_HSI48_PREDIV)
 289:Src/system_stm32f0xx.c ****       {
 290:Src/system_stm32f0xx.c ****         /* HSI48 used as PLL clock source : SystemCoreClock = HSI48/PREDIV * PLLMUL */
ARM GAS  D:\Temp\ccojMvWV.s 			page 10


 291:Src/system_stm32f0xx.c ****         SystemCoreClock = (HSI48_VALUE/predivfactor) * pllmull;
 292:Src/system_stm32f0xx.c ****       }
 293:Src/system_stm32f0xx.c **** #endif /* STM32F042x6 || STM32F048xx || STM32F072xB || STM32F078xx || STM32F091xC || STM32F098xx */
 294:Src/system_stm32f0xx.c ****       else
 295:Src/system_stm32f0xx.c ****       {
 296:Src/system_stm32f0xx.c **** #if defined(STM32F042x6) || defined(STM32F048xx)  || defined(STM32F070x6) \
 297:Src/system_stm32f0xx.c ****  || defined(STM32F078xx) || defined(STM32F071xB)  || defined(STM32F072xB) \
 298:Src/system_stm32f0xx.c ****  || defined(STM32F070xB) || defined(STM32F091xC) || defined(STM32F098xx)  || defined(STM32F030xC)
 299:Src/system_stm32f0xx.c ****         /* HSI used as PLL clock source : SystemCoreClock = HSI/PREDIV * PLLMUL */
 300:Src/system_stm32f0xx.c ****         SystemCoreClock = (HSI_VALUE/predivfactor) * pllmull;
 301:Src/system_stm32f0xx.c **** #else
 302:Src/system_stm32f0xx.c ****         /* HSI used as PLL clock source : SystemCoreClock = HSI/2 * PLLMUL */
 303:Src/system_stm32f0xx.c ****         SystemCoreClock = (HSI_VALUE >> 1) * pllmull;
 192              		.loc 1 303 44 view .LVU61
 193 002a 6043     		muls	r0, r4
 194              	.LVL11:
 195              	.L5:
 304:Src/system_stm32f0xx.c **** #endif /* STM32F042x6 || STM32F048xx || STM32F070x6 || 
 305:Src/system_stm32f0xx.c ****           STM32F071xB || STM32F072xB || STM32F078xx || STM32F070xB ||
 306:Src/system_stm32f0xx.c ****           STM32F091xC || STM32F098xx || STM32F030xC */
 307:Src/system_stm32f0xx.c ****       }
 308:Src/system_stm32f0xx.c ****       break;
 309:Src/system_stm32f0xx.c ****     default: /* HSI used as system clock */
 310:Src/system_stm32f0xx.c ****       SystemCoreClock = HSI_VALUE;
 311:Src/system_stm32f0xx.c ****       break;
 312:Src/system_stm32f0xx.c ****   }
 313:Src/system_stm32f0xx.c ****   /* Compute HCLK clock frequency ----------------*/
 314:Src/system_stm32f0xx.c ****   /* Get HCLK prescaler */
 315:Src/system_stm32f0xx.c ****   tmp = AHBPrescTable[((RCC->CFGR & RCC_CFGR_HPRE) >> 4)];
 196              		.loc 1 315 3 is_stmt 1 view .LVU62
 316:Src/system_stm32f0xx.c ****   /* HCLK clock frequency */
 317:Src/system_stm32f0xx.c ****   SystemCoreClock >>= tmp;
 318:Src/system_stm32f0xx.c **** }
 197              		.loc 1 318 1 is_stmt 0 view .LVU63
 198              		@ sp needed
 315:Src/system_stm32f0xx.c ****   /* HCLK clock frequency */
 199              		.loc 1 315 28 view .LVU64
 200 002c 6B68     		ldr	r3, [r5, #4]
 201              	.LVL12:
 317:Src/system_stm32f0xx.c **** }
 202              		.loc 1 317 3 is_stmt 1 view .LVU65
 315:Src/system_stm32f0xx.c ****   /* HCLK clock frequency */
 203              		.loc 1 315 22 is_stmt 0 view .LVU66
 204 002e 084A     		ldr	r2, .L9+8
 315:Src/system_stm32f0xx.c ****   /* HCLK clock frequency */
 205              		.loc 1 315 52 view .LVU67
 206 0030 1B06     		lsls	r3, r3, #24
 207              	.LVL13:
 315:Src/system_stm32f0xx.c ****   /* HCLK clock frequency */
 208              		.loc 1 315 52 view .LVU68
 209 0032 1B0F     		lsrs	r3, r3, #28
 315:Src/system_stm32f0xx.c ****   /* HCLK clock frequency */
 210              		.loc 1 315 7 view .LVU69
 211 0034 D35C     		ldrb	r3, [r2, r3]
 317:Src/system_stm32f0xx.c **** }
 212              		.loc 1 317 19 view .LVU70
 213 0036 0749     		ldr	r1, .L9+12
ARM GAS  D:\Temp\ccojMvWV.s 			page 11


 214 0038 D840     		lsrs	r0, r0, r3
 215 003a 0860     		str	r0, [r1]
 216              		.loc 1 318 1 view .LVU71
 217 003c 70BD     		pop	{r4, r5, r6, pc}
 218              	.LVL14:
 219              	.L6:
 303:Src/system_stm32f0xx.c **** #endif /* STM32F042x6 || STM32F048xx || STM32F070x6 || 
 220              		.loc 1 303 9 is_stmt 1 view .LVU72
 303:Src/system_stm32f0xx.c **** #endif /* STM32F042x6 || STM32F048xx || STM32F070x6 || 
 221              		.loc 1 303 44 is_stmt 0 view .LVU73
 222 003e 0648     		ldr	r0, .L9+16
 223 0040 F3E7     		b	.L8
 224              	.LVL15:
 225              	.L7:
 267:Src/system_stm32f0xx.c ****   {
 226              		.loc 1 267 3 view .LVU74
 227 0042 0248     		ldr	r0, .L9+4
 228 0044 F2E7     		b	.L5
 229              	.L10:
 230 0046 C046     		.align	2
 231              	.L9:
 232 0048 00100240 		.word	1073876992
 233 004c 00127A00 		.word	8000000
 234 0050 00000000 		.word	AHBPrescTable
 235 0054 00000000 		.word	SystemCoreClock
 236 0058 00093D00 		.word	4000000
 237              		.cfi_endproc
 238              	.LFE38:
 240              		.global	APBPrescTable
 241              		.section	.rodata.APBPrescTable,"a"
 244              	APBPrescTable:
 245 0000 00000000 		.ascii	"\000\000\000\000\001\002\003\004"
 245      01020304 
 246              		.global	AHBPrescTable
 247              		.section	.rodata.AHBPrescTable,"a"
 250              	AHBPrescTable:
 251 0000 00000000 		.ascii	"\000\000\000\000\000\000\000\000\001\002\003\004\006"
 251      00000000 
 251      01020304 
 251      06
 252 000d 070809   		.ascii	"\007\010\011"
 253              		.global	SystemCoreClock
 254              		.section	.data.SystemCoreClock,"aw"
 255              		.align	2
 258              	SystemCoreClock:
 259 0000 00127A00 		.word	8000000
 260              		.text
 261              	.Letext0:
 262              		.file 2 "D:\\STM32CubeCLT\\STM32CubeCLT_1.18.0\\GNU-tools-for-STM32\\bin\\../lib/gcc/arm-none-eabi
 263              		.file 3 "D:\\STM32CubeCLT\\STM32CubeCLT_1.18.0\\GNU-tools-for-STM32\\bin\\../lib/gcc/arm-none-eabi
 264              		.file 4 "Drivers/CMSIS/Device/ST/STM32F0xx/Include/system_stm32f0xx.h"
 265              		.file 5 "Drivers/CMSIS/Device/ST/STM32F0xx/Include/stm32f030x6.h"
ARM GAS  D:\Temp\ccojMvWV.s 			page 12

